                ; CPM3LDR program code
                
                	maclib	z80
                
                	public	loader
                	extrn	bdos
                
 000D =         CR	equ	13
 000A =         LF	equ	10
 0009 =         TAB	equ	9
 0008 =         BS	equ	8
 0007 =         BEL	equ	7
 007F =         DEL	equ	127
                
                ; locations in page-0
 0008 =         rst1	equ	0008h
 000B =         ticker	equ	000bh
 000D =         gpbyte	equ	000dh
 000E =         l000eh	equ	000eh
 0080 =         dmabuf	equ	0080h
                
 0009 =         msgout	equ	9
 000D =         reset	equ	13
 000F =         open	equ	15
 0014 =         read	equ	20
 001A =         setdma	equ	26
                
                	cseg
 0100           	org	0100h
                loader:
 0100 0E0D      	mvi c,reset
 0102 CD0000    	call bdos
 0105 0E0F      	mvi c,open
 0107 118B01    	lxi d,cpm3sys
 010A CD0000    	call bdos
 010D FEFF      	cpi 0ffh
 010F 11AF01    	lxi d,fnfmsg
 0112 CA8401    	jz die
 0115 118000    	lxi d,dmabuf
 0118 CD7101    	call st$dma
 011B CD7701    	call rd$file	; load header
                
 011E 218000    	lxi h,dmabuf
 0121 11F501    	lxi d,header
 0124 0E06      	mvi c,6
                memcpy:
 0126 7E        	mov a,m
 0127 12        	stax d
 0128 13        	inx d
 0129 23        	inx h
 012A 0D        	dcr c
 012B C22601    	jnz memcpy
                
 012E CD7701    	call rd$file	; load message (optional)
 0131 0E09      	mvi c,msgout
 0133 118000    	lxi d,dmabuf
 0136 CD0000    	call bdos
 0139 3AF601    	lda respgs
 013C 67        	mov h,a
 013D 3AF501    	lda restop
 0140 CD5501    	call loadit
 0143 3AF801    	lda bnkpgs
 0146 B7        	ora a
 0147 CA5101    	jz nobnk
 014A 67        	mov h,a
 014B 3AF701    	lda bnktop
 014E CD5501    	call loadit
                nobnk:
 0151 2AF901    	lhld osntry
 0154 E9        	pchl 
                
                ; H = num pages to load, A = starting (top) page.
                ; Loads records *backward* into memory.
                loadit:
 0155 B7        	ora a
 0156 57        	mov d,a
 0157 1E00      	mvi e,0
 0159 7C        	mov a,h
 015A 17        	ral
 015B 67        	mov h,a
                nxtrec:
 015C EB        	xchg 
 015D 0180FF    	lxi b,-128
 0160 09        	dad b
 0161 EB        	xchg 
 0162 D5        	push d
 0163 E5        	push h
 0164 CD7101    	call st$dma
 0167 CD7701    	call rd$file
 016A E1        	pop h
 016B D1        	pop d
 016C 25        	dcr h
 016D C25C01    	jnz nxtrec
 0170 C9        	ret
                
                st$dma:
 0171 0E1A      	mvi c,setdma
 0173 CD0000    	call bdos
 0176 C9        	ret
                
                rd$file:
 0177 0E14      	mvi c,read
 0179 118B01    	lxi d,cpm3sys
 017C CD0000    	call bdos
 017F B7        	ora a
 0180 11D301    	lxi d,rdemsg
 0183 C8        	rz 
                	; fall-through to die()
                die:
 0184 0E09      	mvi c,msgout
 0186 CD0000    	call bdos
 0189 F3        	di
 018A 76        	hlt
                
                cpm3sys:
 018B 0043504D33	db	0,'CPM3    SYS',0,0,0,0
 019B 0000000000	db	0,0,0,0,0,0,0,0,0,0,0,0,0,0,0,0
 01AB 00000000  	db	0,0,0,0
                
                fnfmsg:
 01AF 0D0A657272	db	CR,LF,'error: File not found: CPM3.SYS'
 01D0 0D0A24    	db	CR,LF,'$'
                
                rdemsg:
 01D3 0D0A657272	db	CR,LF,'error: Read failure: CPM3.SYS'
 01F2 0D0A24    	db	CR,LF,'$'
                
                ; load/run params from file header
                header:	;		element use		e.g.
 01F5 00        restop:	db	0	; top page for RES	00
 01F6 00        respgs:	db	0	; num pages		0f
 01F7 00        bnktop:	db	0	; top page for BNK	e0
 01F8 00        bnkpgs:	db	0	; num pages		4e
 01F9 0000      osntry:	dw	0	; entry point (cboot)	f700
                
 01FB           	end
