		; Boot Module for H47
			maclib	ram
**** ram.lib ****
**** bh47.asm ****
			maclib	core
**** core.lib ****
**** bh47.asm ****
			maclib	setup
**** setup.lib ****
**** bh47.asm ****
			maclib	z80
**** z80.lib ****
**** bh47.asm ****
		
1000          		org	1000h
1000  01      	first:	db	HIGH (last-first)	; +0: num pages
1001  10      		db	HIGH first		; +1: ORG page
1002  0504    		db	5,4	; +2,+3: phy drv base, num
		
1004  C31410  		jmp	init	; +4: init entry
1007  C33A10  		jmp	boot	; +7: boot entry
		
100A  44      		db	'D'	; +10: Boot command letter
100B  01      		db	1	; +11: front panel key
100C  00      		db	0	; +12: port, 0 if variable
100D  92B2F1  		db	10010010b,10110010b,11110001b	; +13: FP display ("H47")
1010  48343700		db	'H47',0	; +16: mnemonic string
		
1014          	init:
1014  3A0CF9  		lda	susave+h47pt
1017  FEFF    		cpi	0ffh
1019  2008    		jrnz	init1
101B  0E01    		mvi	c,01b
101D  CD0400  		call	getport	; no return on error
1020  2004    		jrnz	init0	; not fatal, if caller gets port later
1022  78      		mov	a,b
1023  325021  	init1:	sta	cport
1026          	init0:
			; 'JMP' already in place
1026  21A510  		lxi	h,z47$dati
1029  223801  		shld	h47$dati+1
102C  217A10  		lxi	h,z47$dato
102F  221406  		shld	h47$dato+1
1032  217E10  		lxi	h,z47$cmdo
1035  221806  		shld	h47$cmdo+1
1038  AF      		xra	a	; NC
1039  C9      		ret
		
103A          	boot:
103A  3A3121  		lda	AIO$UNI
103D  0F      		rrc		; u000000u
103E  0F      		rrc		; uu000000
103F  0F      		rrc		; 0uu00000
1040  3C      		inr	a	; 0uu00001
1041  5F      		mov	e,a
1042  3E05    		mvi	a,5
1044  CD4100  		call	take$A	; error out after 5 seconds...
1047  3E02    		mvi	a,2
1049  CD8B10  		call	outport0
104C  3E02    		mvi	a,2
104E  CD7E10  		call	z47$cmdo
1051  7B      		mov	a,e
1052  CD7A10  		call	z47$dato
1055  CDA510  		call	z47$dati
1058  E60C    		ani	00ch
105A  0F      		rrc
105B  0F      		rrc
105C  3C      		inr	a
105D  47      		mov	b,a
105E  3E01    		mvi	a,1
1060          	bz47$0:
1060  87      		add	a
1061  10FD    		djnz	bz47$0
1063  1F      		rar
1064  47      		mov	b,a
1065  218022  		lxi	h,bootbf
1068  C5      		push	b
1069  CDAE10  		call	z47$read
106C  C1      		pop	b
106D  1C      		inr	e
106E  CDAE10  		call	z47$read
1071  CD9910  		call	inport0
1074  E601    		ani	001h
1076  C0      		rnz
1077  C33B00  		jmp	hwboot
		
107A          	z47$dato:
107A  1680    		mvi	d,080h	; TR - date transfer request
107C  1802    		jr	z47$out0
107E          	z47$cmdo:
107E  1620    		mvi	d,020h	; DONE
1080          	z47$out0:
1080  37      		stc
1081  F5      		push	psw
1082          	z47$wt0:
1082  CD9910  		call	inport0
1085  A2      		ana	d
1086  28FA    		jrz	z47$wt0
1088  F1      		pop	psw
1089  1801    		jr	z47$out1
108B          	outport0:
108B  B7      		ora	a
108C          	z47$out1:
108C  C5      		push	b
108D  47      		mov	b,a
108E  3A5021  		lda	cport
1091  CE00    		aci	0
1093  4F      		mov	c,a
1094  78      		mov	a,b
1095  ED79    		outp	a
1097  C1      		pop	b
1098  C9      		ret
		
1099          	inport0:
1099  B7      		ora	a	; NC
109A          	inportx:	; input from cport+CY
109A  C5      		push	b
109B  3A5021  		lda	cport
109E  CE00    		aci	0
10A0  4F      		mov	c,a
10A1  ED78    		inp	a
10A3  C1      		pop	b
10A4  C9      		ret
		
10A5          	z47$dati:
10A5  CD9910  		call	inport0
10A8  07      		rlc	; TR
10A9  30FA    		jrnc	z47$dati
10AB  C39A10  		jmp	inportx	; CY=1, input cport+1
		
10AE          	z47$read:
10AE  3E07    		mvi	a,7	; read thru buffer command
10B0  CD7E10  		call	z47$cmdo
10B3  AF      		xra	a
10B4  CD7A10  		call	z47$dato	; params
10B7  7B      		mov	a,e
10B8  CD7A10  		call	z47$dato	; params
10BB          	z47$rd0:
10BB  0E80    		mvi	c,128
10BD          	z47$rd1:
10BD  CDA510  		call	z47$dati
10C0  77      		mov	m,a
10C1  23      		inx	h
10C2  0D      		dcr	c
10C3  20F8    		jrnz	z47$rd1
10C5  05      		dcr	b
10C6  20F3    		jrnz	z47$rd0
10C8  C9      		ret
		
10C9  FFFFFFFF		rept	(($+0ffh) and 0ff00h)-$
      FFFFFFFF
      FFFFFFFF
      FFFFFFFF
      FFFFFFFF
      FFFFFFFF
      FFFFFFFF
      FFFFFFFF
      FFFFFFFF
      FFFFFFFF
      FFFFFFFF
      FFFFFFFF
      FFFFFFFF
      FFFFFF
0000          	if ($ > 1800h)
		endif
		
1100          	last:	end



Statistics:

     4	passes
     0	jr promotions
   120	symbols
   256	bytes

    84	macro calls
  3759	macro bytes
     0	invented symbols
