		; Boot Module for H67
			maclib	ram
**** ram.lib ****
**** bh67.asm ****
			maclib	core
**** core.lib ****
**** bh67.asm ****
			maclib	setup
**** setup.lib ****
**** bh67.asm ****
			maclib	z80
**** z80.lib ****
**** bh67.asm ****
		
1000          		org	1000h
1000  02      	first:	db	HIGH (last-first)	; +0: num pages
1001  10      		db	HIGH first		; +1: ORG page
1002  0302    		db	3,2	; +2,+3: phy drv base, num
		
1004  C31410  		jmp	init	; +4: init entry
1007  C32810  		jmp	boot	; +7: boot entry
		
100A  45      		db	'E'	; +10: Boot command letter
100B  02      		db	2	; +11: front panel key
100C  00      		db	0	; +12: port, 0 if variable
100D  9284F1  		db	10010010b,10000100b,11110001b	; +13: FP display ("H67")
1010  48363700		db	'H67',0	; +16: mnemonic string
		
1014          	init:
1014  3A0BF9  		lda	susave+h67pt
1017  FEFF    		cpi	0ffh
1019  2008    		jrnz	init1
101B  0E02    		mvi	c,10b
101D  CD0400  		call	getport	; no return on error
1020  2004    		jrnz	init0	; not fatal, if caller gets port later
1022  78      		mov	a,b
1023  325021  	init1:	sta	cport
1026  AF      	init0:	xra	a	; NC
1027  C9      		ret
		
1028          	boot:
1028  3A3121  		lda	AIO$UNI
102B  0F      		rrc
102C  0F      		rrc
102D  0F      		rrc
102E  323321  		sta	cmdbuf+1
1031  3A5021  		lda	cport
1034  3C      		inr	a
1035  4F      		mov	c,a
1036  AF      		xra	a
1037  ED79    		outp	a
1039  210000  		lxi	h,0		; zero-out command buffer
103C  223221  		shld	cmdbuf
103F  223421  		shld	cmdbuf+2
1042  223621  		shld	cmdbuf+4
1045  225621  		shld	l2156h	; zero-out ...
1048  225821  		shld	l2156h+2
104B  325A21  		sta	l2156h+4
104E  1600    		mvi	d,0	; controller number
1050  3E04    		mvi	a,4	; delay 8mS, also NZ
1052  B7      		ora	a
1053  FB      		ei
1054          	bsasi0:
1054  C8      		rz
1055  CD2B00  		call	delay
1058  1E00    		mvi	e,0	; Test Drive Ready
105A  CD7710  		call	sasi$cmd
105D  3EFF    		mvi	a,255	; longer delay on retry...
105F  38F3    		jrc	bsasi0
1061  1E01    		mvi	e,1	; Recalibrate (Home)
1063  CD7710  		call	sasi$cmd
1066  D8      		rc
1067  210A80  		lxi	h,0800ah	; 10 sectors, retry 8
106A  223621  		shld	cmdbuf+4
106D  1E08    		mvi	e,8	; Read
106F  CD7710  		call	sasi$cmd
1072  D8      		rc
1073  E1      		pop	h
1074  C33B00  		jmp	hwboot
		
		; send SASI read command, get results
1077          	sasi$cmd:
1077  F3      		di
1078  7B      		mov	a,e
1079  323221  		sta	cmdbuf
107C  0600    		mvi	b,0	; wait for "not BUSY" first
107E  1E06    		mvi	e,6	;
1080  210000  		lxi	h,0	; 0x060000 loop/timeout count
1083          	sscmd0:
1083  ED78    		inp	a
1085  E608    		ani	00001000b
1087  B8      		cmp	b
1088  280A    		jrz	sscmd1
108A  2B      		dcx	h
108B  7D      		mov	a,l
108C  B4      		ora	h
108D  20F4    		jrnz	sscmd0
108F  1D      		dcr	e
1090  20F1    		jrnz	sscmd0
1092  37      		stc
1093  C9      		ret
1094          	sscmd1:
1094  78      		mov	a,b
1095  EE08    		xri	00001000b	; wait for BUSY
1097  2810    		jrz	sscmd2		; got BUSY...
1099  47      		mov	b,a
109A  0D      		dcr	c
109B  AF      		xra	a
109C  ED79    		outp	a
109E  0C      		inr	c
109F  0C      		inr	c
10A0  ED51    		outp	d	; controller number
10A2  0D      		dcr	c
10A3  3E40    		mvi	a,040h	; SELECT
10A5  ED79    		outp	a
10A7  18DA    		jr	sscmd0	; wait for BUSY now...
		
10A9          	sscmd2:
10A9  3E02    		mvi	a,002h	; enable INTR
10AB  ED79    		outp	a
10AD  213221  		lxi	h,cmdbuf
10B0          	sscmd3:
10B0  ED78    		inp	a
10B2  CB7F    		bit	7,a	; REQ
10B4  28FA    		jrz	sscmd3
10B6  CB67    		bit	4,a	; CMD
10B8  280A    		jrz	sscmd4
10BA  CB77    		bit	6,a	; MSG
10BC  2819    		jrz	sscmd6
10BE  0D      		dcr	c
10BF  EDA3    		outi		; output command byte
10C1  0C      		inr	c
10C2  18EC    		jr	sscmd3
		
10C4          	sscmd4:
10C4  218022  		lxi	h,bootbf
10C7          	sscmd5:
10C7  ED78    		inp	a
10C9  CB7F    		bit	7,a	; REQ
10CB  28FA    		jrz	sscmd5
10CD  CB67    		bit	4,a	; CMD - indicates data done
10CF  2006    		jrnz	sscmd6
10D1  0D      		dcr	c
10D2  EDA2    		ini		; input data byte
10D4  0C      		inr	c
10D5  18F0    		jr	sscmd5
10D7          	sscmd6:
10D7  ED78    		inp	a
10D9  E6D0    		ani	0d0h	; REQ, OUT, CMD
10DB  FE90    		cpi	090h	; must be REQ, CMD
10DD  20F8    		jrnz	sscmd6	; wait for it...
10DF  0D      		dcr	c
10E0  ED68    		inp	l	; result 0
10E2  0C      		inr	c
10E3          	sscmd7:
10E3  ED60    		inp	h	; status
10E5  7C      		mov	a,h
10E6  E6E0    		ani	0e0h	; REG, OUT, MSG
10E8  FEA0    		cpi	0a0h	; must be REQ, MSG
10EA  20F7    		jrnz	sscmd7
10EC  223821  		shld	resbuf	; command results
10EF  0D      		dcr	c
10F0  ED78    		inp	a	; last data byte
10F2  0C      		inr	c
10F3  FB      		ei
10F4  B7      		ora	a
10F5  37      		stc
10F6  C0      		rnz		; error
10F7  CB45    		bit	0,l	; SASI error bit
10F9  C0      		rnz
10FA  CB4D    		bit	1,l	; or other error?
10FC  C0      		rnz
10FD  CB4C    		bit	1,h	; ACK
10FF  C0      		rnz
1100  AF      		xra	a	; success
1101  C9      		ret
		
1102  FFFFFFFF		rept	(($+0ffh) and 0ff00h)-$
      FFFFFFFF
      FFFFFFFF
      FFFFFFFF
      FFFFFFFF
      FFFFFFFF
      FFFFFFFF
      FFFFFFFF
      FFFFFFFF
      FFFFFFFF
      FFFFFFFF
      FFFFFFFF
      FFFFFFFF
      FFFFFFFF
      FFFFFFFF
      FFFFFFFF
      FFFFFFFF
      FFFFFFFF
      FFFFFFFF
      FFFFFFFF
      FFFFFFFF
      FFFFFFFF
      FFFFFFFF
      FFFFFFFF
      FFFFFFFF
      FFFFFFFF
      FFFFFFFF
      FFFFFFFF
      FFFFFFFF
      FFFFFFFF
      FFFFFFFF
      FFFFFFFF
      FFFFFFFF
      FFFFFFFF
      FFFFFFFF
      FFFFFFFF
      FFFFFFFF
      FFFFFFFF
      FFFFFFFF
      FFFFFFFF
      FFFFFFFF
      FFFFFFFF
      FFFFFFFF
      FFFFFFFF
      FFFFFFFF
      FFFFFFFF
      FFFFFFFF
      FFFFFFFF
      FFFFFFFF
      FFFFFFFF
      FFFFFFFF
      FFFFFFFF
      FFFFFFFF
      FFFFFFFF
      FFFFFFFF
      FFFFFFFF
      FFFFFFFF
      FFFFFFFF
      FFFFFFFF
      FFFFFFFF
      FFFFFFFF
      FFFFFFFF
      FFFFFFFF
      FFFF
0000          	if ($ > 1800h)
		endif
		
1200          	last:	end



Statistics:

     4	passes
     0	jr promotions
   103	symbols
   512	bytes

   327	macro calls
  3759	macro bytes
     0	invented symbols
