		; Command module for CPU Speed Control
		
			maclib	core
**** core.lib ****
**** cspeed.asm ****
			maclib	ram
**** ram.lib ****
**** cspeed.asm ****
			maclib	z80
**** z80.lib ****
**** cspeed.asm ****
		
000D          	CR	equ	13
000A          	LF	equ	10
0008          	BS	equ	8
0003          	CTLC	equ	3
0007          	BEL	equ	7
001B          	ESC	equ	27
		
0014          	spbits	equ	00010100b
0014          	mhz10	equ	00010100b
0004          	mhz8	equ	00000100b
0010          	mhz4	equ	00010000b
0000          	mhz2	equ	00000000b
		
1000          		org	1000h
1000  01      	first:	db	HIGH (last-first)	; +0: num pages
1001  10      		db	HIGH first		; +1: ORG page
1002  FF00    		db	255,0	; +2,+3: phy drv base, num
		
1004  C32410  		jmp	init	; +4: init entry
1007  C32610  		jmp	exec	; +7: action entry
		
100A  73      		db	's'	; +10: Command letter
100B  FF      		db	-1	; +11: front panel key
100C  00      		db	0	; +12: port, 0 if variable
100D  FFFFFF  		db	11111111b,11111111b,11111111b	; +13: FP display
1010  43505520		db	'CPU Speed [2|4|8|M]',0	; +16: mnemonic string
      53706565
      64205B32
      7C347C38
      7C4D5D00
		
1024          	init:
1024  AF      		xra	a	; NC
1025  C9      		ret
		
1026          	exec:
1026  21B210  		lxi	h,signon
1029  CD4400  		call	msgout
102C  21BE10  		lxi	h,mis
102F  CD4A00  	spd0:	call	conin
1032  FE0D    		cpi	CR
1034  283E    		jrz	show
1036  FE32    		cpi	'2'
1038  0E00    		mvi	c,mhz2
103A  281B    		jrz	ok
103C  FE34    		cpi	'4'
103E  0E10    		mvi	c,mhz4
1040  2815    		jrz	ok
1042  FE38    		cpi	'8'
1044  0E04    		mvi	c,mhz8
1046  280F    		jrz	ok
1048  E65F    		ani	01011111b
104A  FE4D    		cpi	'M'
104C  0E14    		mvi	c,mhz10
104E  2807    		jrz	ok
1050  3E07    		mvi	a,BEL
1052  CDAE10  		call	chrout
1055  18D8    		jr	spd0
1057  CDAE10  	ok:	call	chrout
105A  CD4A00  		call	conin
105D  FE0D    		cpi	CR
105F  2804    		jrz	ok1
1061  3E07    		mvi	a,BEL
1063  18F2    		jr	ok
1065  213620  	ok1:	lxi	h,ctl$F2
1068  F3      		di
1069  7E      		mov	a,m
106A  E6EB    		ani	NOT spbits
106C  B1      		ora	c
106D  77      		mov	m,a
106E  D3F2    		out	0f2h
1070  FB      		ei
1071  21C210  		lxi	h,mset
1074  E5      	show:	push	h
1075  CD1B00  		call	crlf
1078  21B310  		lxi	h,signon+1
107B  CD4400  		call	msgout
107E  E1      		pop	h
107F  CD4400  		call	msgout
1082  3A3620  		lda	ctl$F2
1085  E614    		ani	spbits
1087  FE00    		cpi	mhz2
1089  0E32    		mvi	c,'2'
108B  2814    		jrz	got
108D  FE10    		cpi	mhz4
108F  0E34    		mvi	c,'4'
1091  280E    		jrz	got
1093  FE04    		cpi	mhz8
1095  0E38    		mvi	c,'8'
1097  2808    		jrz	got
			; must be MAX
1099  21CA10  		lxi	h,mmax
109C  CD4400  		call	msgout
109F  180A    		jr	fin
10A1  79      	got:	mov	a,c
10A2  CDAE10  		call	chrout
10A5  21CE10  		lxi	h,mmhz
10A8  CD4400  		call	msgout
10AB  C31B00  	fin:	jmp	crlf
		
10AE  2A2600  	chrout:	lhld	conout
10B1  E9      		pchl
		
10B2  20435055	signon:	db	' CPU Speed ',0
      20537065
      65642000
		
10BE  69732000	mis:	db	'is ',0
10C2  73657420	mset:	db	'set to ',0
      746F2000
10CA  4D617800	mmax:	db	'Max',0
10CE  4D487A00	mmhz:	db	'MHz',0
		
10D2  FFFFFFFF		rept	(($+0ffh) and 0ff00h)-$
      FFFFFFFF
      FFFFFFFF
      FFFFFFFF
      FFFFFFFF
      FFFFFFFF
      FFFFFFFF
      FFFFFFFF
      FFFFFFFF
      FFFFFFFF
      FFFFFFFF
      FFFF
		
1100          	last:	end



Statistics:

     4	passes
     0	jr promotions
    98	symbols
   256	bytes

    82	macro calls
  3759	macro bytes
     0	invented symbols
