                ; MAC.COM - main module
                
                	maclib	m1200
                	maclib	m1600
                	maclib	m1c00
                	maclib	m2100
                	maclib	m2580
                	maclib	macg
                
                	; for patch
                	public	L11e2
                
                	;org	00100h
                	cseg
 0000 C32800    	jmp	L0128		;; 0100: c3 28 01    .(.
                
 0003 20434F5059	db	' COPYRIGHT (C) 1977 DIGITAL RESEARCH '
                
 0028 310000    L0128:	lxi	sp,stack	;; 0128: 31 00 31    1.1
 002B AF        	xra	a		;; 012b: af          .
 002C 320000    	sta	pass		;; 012c: 32 4f 30    2O0
 002F 320000    	sta	L305a		;; 012f: 32 5a 30    2Z0
 0032 CD0000    	call	L2580		;; 0132: cd 80 25    ..%
 0035 CD0000    	call	L1c03		;; 0135: cd 03 1c    ...
 0038 210000    	lxi	h,0		;; 0138: 21 00 00    ...
 003B 22D610    	shld	L11d6		;; 013b: 22 d6 11    "..
 003E CD0000    L013e:	call	L1c4b		;; 013e: cd 4b 1c    .K.
 0041 AF        	xra	a		;; 0141: af          .
 0042 320000    	sta	L2ea3		;; 0142: 32 a3 2e    2..
 0045 3E00      	mvi	a,000h		;; 0145: 3e 00       >.
 0047 320000    	sta	L2ea4		;; 0147: 32 a4 2e    2..
 004A 2A0000    	lhld	memtop		;; 014a: 2a 4d 30    *M0
 004D 220000    	shld	L2f24		;; 014d: 22 24 2f    "$/
 0050 CD0000    	call	L1603		;; 0150: cd 03 16    ...
 0053 CD0000    	call	L2583		;; 0153: cd 83 25    ..%
 0056 210000    	lxi	h,0		;; 0156: 21 00 00    ...
 0059 22C310    	shld	L11c3		;; 0159: 22 c3 11    "..
 005C 22DE10    	shld	L11de		;; 015c: 22 de 11    "..
 005F 3A0000    	lda	Rflag		;; 015f: 3a 67 30    :g0
 0062 B7        	ora	a		;; 0162: b7          .
 0063 CA6900    	jz	L0169		;; 0163: ca 69 01    .i.
 0066 210001    	lxi	h,256		;; 0166: 21 00 01    ...
 0069 220000    L0169:	shld	curadr		;; 0169: 22 50 30    "P0
 006C 220000    	shld	linadr		;; 016c: 22 52 30    "R0
 006F 22C710    	shld	L11c7		;; 016f: 22 c7 11    "..
 0072 AF        	xra	a		;; 0172: af          .
 0073 32CD10    	sta	L11cd		;; 0173: 32 cd 11    2..
 0076 CD0000    L0176:	call	L1606		;; 0176: cd 06 16    ...
 0079 3A0000    L0179:	lda	L3005		;; 0179: 3a 05 30    :.0
 007C FE02      	cpi	002h		;; 017c: fe 02       ..
 007E CA7600    	jz	L0176		;; 017e: ca 76 01    .v.
 0081 FE04      	cpi	004h		;; 0181: fe 04       ..
 0083 C2CB00    	jnz	L01cb		;; 0183: c2 cb 01    ...
 0086 3A0000    	lda	L3009		;; 0186: 3a 09 30    :.0
 0089 FE24      	cpi	'$'		;; 0189: fe 24       .$
 008B C2D50C    	jnz	L0dd5		;; 018b: c2 d5 0d    ...
 008E CDEA0D    	call	L0eea		;; 018e: cd ea 0e    ...
 0091 C2200D    	jnz	L0e20		;; 0191: c2 20 0e    . .
 0094 3A0000    	lda	L305b		;; 0194: 3a 5b 30    :[0
 0097 0600      	mvi	b,000h		;; 0197: 06 00       ..
 0099 FE2D      	cpi	'-'		;; 0199: fe 2d       .-
 009B CAAC00    	jz	L01ac		;; 019b: ca ac 01    ...
 009E 0603      	mvi	b,003h		;; 019e: 06 03       ..
 00A0 FE2B      	cpi	'+'		;; 01a0: fe 2b       .+
 00A2 CAAC00    	jz	L01ac		;; 01a2: ca ac 01    ...
 00A5 0607      	mvi	b,007h		;; 01a5: 06 07       ..
 00A7 FE2A      	cpi	'*'		;; 01a7: fe 2a       .*
 00A9 C2200D    	jnz	L0e20		;; 01a9: c2 20 0e    . .
 00AC C5        L01ac:	push	b		;; 01ac: c5          .
 00AD CD0000    	call	L1606		;; 01ad: cd 06 16    ...
 00B0 C1        	pop	b		;; 01b0: c1          .
 00B1 3A0000    	lda	L305b		;; 01b1: 3a 5b 30    :[0
 00B4 210000    	lxi	h,Mflag		;; 01b4: 21 5f 30    ._0
 00B7 FE4D      	cpi	'M'		;; 01b7: fe 4d       .M
 00B9 CAC400    	jz	L01c4		;; 01b9: ca c4 01    ...
 00BC 210000    	lxi	h,L3066		;; 01bc: 21 66 30    .f0
 00BF FE50      	cpi	'P'		;; 01bf: fe 50       .P
 00C1 C2200D    	jnz	L0e20		;; 01c1: c2 20 0e    . .
 00C4 70        L01c4:	mov	m,b		;; 01c4: 70          p
 00C5 CD0000    	call	L1606		;; 01c5: cd 06 16    ...
 00C8 C3090B    	jmp	L0c09		;; 01c8: c3 09 0c    ...
                
 00CB FE01      L01cb:	cpi	001h		;; 01cb: fe 01       ..
 00CD C2200D    	jnz	L0e20		;; 01cd: c2 20 0e    . .
 00D0 CD0000    	call	L2106		;; 01d0: cd 06 21    ...
 00D3 CA0D03    	jz	L040d		;; 01d3: ca 0d 04    ...
 00D6 CD0000    	call	L1c06		;; 01d6: cd 06 1c    ...
 00D9 CD0000    	call	L1c09		;; 01d9: cd 09 1c    ...
 00DC C2EC00    	jnz	L01ec		;; 01dc: c2 ec 01    ...
 00DF CD0000    	call	L1c0c		;; 01df: cd 0c 1c    ...
 00E2 3A0000    	lda	pass		;; 01e2: 3a 4f 30    :O0
 00E5 B7        	ora	a		;; 01e5: b7          .
 00E6 C49C10    	cnz	Perror		;; 01e6: c4 9c 11    ...
 00E9 C3E902    	jmp	L03e9		;; 01e9: c3 e9 03    ...
                
 00EC CD0000    L01ec:	call	L1c12		;; 01ec: cd 12 1c    ...
 00EF FE06      	cpi	006h		;; 01ef: fe 06       ..
 00F1 C2E902    	jnz	L03e9		;; 01f1: c2 e9 03    ...
 00F4 210000    	lxi	h,0		;; 01f4: 21 00 00    ...
 00F7 22E010    	shld	L11e0		;; 01f7: 22 e0 11    "..
 00FA 3A0000    	lda	pass		;; 01fa: 3a 4f 30    :O0
 00FD B7        	ora	a		;; 01fd: b7          .
 00FE CA0F01    	jz	L020f		;; 01fe: ca 0f 02    ...
 0101 CD0000    L0201:	call	L1c18		;; 0201: cd 18 1c    ...
 0104 EB        	xchg			;; 0204: eb          .
 0105 2A0000    	lhld	cursym		;; 0205: 2a 56 30    *V0
 0108 7D        	mov	a,l		;; 0208: 7d          }
 0109 93        	sub	e		;; 0209: 93          .
 010A 7C        	mov	a,h		;; 020a: 7c          |
 010B 9A        	sbb	d		;; 020b: 9a          .
 010C DA3C01    	jc	L023c		;; 020c: da 3c 02    .<.
 010F CD7201    L020f:	call	L0272		;; 020f: cd 72 02    .r.
 0112 CD0000    	call	L160c		;; 0212: cd 0c 16    ...
 0115 CDAA01    	call	L02aa		;; 0215: cd aa 02    ...
 0118 C2C101    	jnz	L02c1		;; 0218: c2 c1 02    ...
 011B 2AC310    	lhld	L11c3		;; 021b: 2a c3 11    *..
 011E 7C        	mov	a,h		;; 021e: 7c          |
 011F B5        	ora	l		;; 021f: b5          .
 0120 C4B410    	cnz	Serror		;; 0220: c4 b4 11    ...
 0123 3A0000    	lda	pass		;; 0223: 3a 4f 30    :O0
 0126 B7        	ora	a		;; 0226: b7          .
 0127 C25F01    	jnz	L025f		;; 0227: c2 5f 02    ._.
 012A CD9101    	call	L0291		;; 022a: cd 91 02    ...
 012D CD0000    	call	L1c48		;; 022d: cd 48 1c    .H.
 0130 CD0000    	call	L1c0c		;; 0230: cd 0c 1c    ...
 0133 2A0000    	lhld	cursym		;; 0233: 2a 56 30    *V0
 0136 22C310    	shld	L11c3		;; 0236: 22 c3 11    "..
 0139 C39905    	jmp	pMACRO		;; 0239: c3 99 06    ...
                
 013C 2A0000    L023c:	lhld	cursym		;; 023c: 2a 56 30    *V0
 013F 22E010    	shld	L11e0		;; 023f: 22 e0 11    "..
 0142 CD0000    	call	L1c45		;; 0242: cd 45 1c    .E.
 0145 CD0000    	call	L1c09		;; 0245: cd 09 1c    ...
 0148 CA5601    	jz	L0256		;; 0248: ca 56 02    .V.
 014B CD0000    	call	L1c12		;; 024b: cd 12 1c    ...
 014E FE06      	cpi	006h		;; 024e: fe 06       ..
 0150 C2BB01    	jnz	L02bb		;; 0250: c2 bb 02    ...
 0153 C30101    	jmp	L0201		;; 0253: c3 01 02    ...
                
 0156 CD0000    L0256:	call	L160c		;; 0256: cd 0c 16    ...
 0159 CDAA01    	call	L02aa		;; 0259: cd aa 02    ...
 015C C2BB01    	jnz	L02bb		;; 025c: c2 bb 02    ...
 015F 2AE010    L025f:	lhld	L11e0		;; 025f: 2a e0 11    *..
 0162 EB        	xchg			;; 0262: eb          .
 0163 2AD810    	lhld	L11d8		;; 0263: 2a d8 11    *..
 0166 CDDD0D    	call	compr1		;; 0266: cd dd 0e    ...
 0169 C2BB01    	jnz	L02bb		;; 0269: c2 bb 02    ...
 016C 22C310    	shld	L11c3		;; 026c: 22 c3 11    "..
 016F C39905    	jmp	pMACRO		;; 026f: c3 99 06    ...
                
 0172 2A0000    L0272:	lhld	L304b		;; 0272: 2a 4b 30    *K0
 0175 E5        	push	h		;; 0275: e5          .
 0176 220000    	shld	L3058		;; 0276: 22 58 30    "X0
 0179 210000    	lxi	h,L3008		;; 0279: 21 08 30    ..0
 017C 4E        	mov	c,m		;; 027c: 4e          N
 017D 41        	mov	b,c		;; 027d: 41          A
 017E 23        L027e:	inx	h		;; 027e: 23          #
 017F 7E        	mov	a,m		;; 027f: 7e          ~
 0180 C5        	push	b		;; 0280: c5          .
 0181 E5        	push	h		;; 0281: e5          .
 0182 CD0000    	call	L1c27		;; 0282: cd 27 1c    .'.
 0185 E1        	pop	h		;; 0285: e1          .
 0186 C1        	pop	b		;; 0286: c1          .
 0187 0D        	dcr	c		;; 0287: 0d          .
 0188 C27E01    	jnz	L027e		;; 0288: c2 7e 02    .~.
 018B E1        	pop	h		;; 028b: e1          .
 018C 70        	mov	m,b		;; 028c: 70          p
 018D 220000    	shld	L304b		;; 028d: 22 4b 30    "K0
 0190 C9        	ret			;; 0290: c9          .
                
 0191 2A0000    L0291:	lhld	L304b		;; 0291: 2a 4b 30    *K0
 0194 4E        	mov	c,m		;; 0294: 4e          N
 0195 220000    	shld	L3058		;; 0295: 22 58 30    "X0
 0198 210000    	lxi	h,L3008		;; 0298: 21 08 30    ..0
 019B 71        	mov	m,c		;; 029b: 71          q
 019C 23        L029c:	inx	h		;; 029c: 23          #
 019D C5        	push	b		;; 029d: c5          .
 019E E5        	push	h		;; 029e: e5          .
 019F CD0000    	call	L1c2a		;; 029f: cd 2a 1c    .*.
 01A2 E1        	pop	h		;; 02a2: e1          .
 01A3 C1        	pop	b		;; 02a3: c1          .
 01A4 77        	mov	m,a		;; 02a4: 77          w
 01A5 0D        	dcr	c		;; 02a5: 0d          .
 01A6 C29C01    	jnz	L029c		;; 02a6: c2 9c 02    ...
 01A9 C9        	ret			;; 02a9: c9          .
                
 01AA 3A0000    L02aa:	lda	L3005		;; 02aa: 3a 05 30    :.0
 01AD FE05      	cpi	005h		;; 02ad: fe 05       ..
 01AF C0        	rnz			;; 02af: c0          .
 01B0 CD0000    	call	L2106		;; 02b0: cd 06 21    ...
 01B3 C0        	rnz			;; 02b3: c0          .
 01B4 FE1A      	cpi	eof		;; 02b4: fe 1a       ..
 01B6 C0        	rnz			;; 02b6: c0          .
 01B7 78        	mov	a,b		;; 02b7: 78          x
 01B8 FE09      	cpi	tab		;; 02b8: fe 09       ..
 01BA C9        	ret			;; 02ba: c9          .
                
 01BB CD9C10    L02bb:	call	Perror		;; 02bb: cd 9c 11    ...
 01BE C3D50C    	jmp	L0dd5		;; 02be: c3 d5 0d    ...
                
 01C1 2A0000    L02c1:	lhld	cursym		;; 02c1: 2a 56 30    *V0
 01C4 E5        	push	h		;; 02c4: e5          .
 01C5 CDF40D    	call	L0ef4		;; 02c5: cd f4 0e    ...
 01C8 2A0000    	lhld	linadr		;; 02c8: 2a 52 30    *R0
 01CB 3A0000    	lda	Mflag		;; 02cb: 3a 5f 30    :_0
 01CE B7        	ora	a		;; 02ce: b7          .
 01CF CC8D0E    	cz	prnadr		;; 02cf: cc 8d 0f    ...
 01D2 E1        	pop	h		;; 02d2: e1          .
 01D3 220000    	shld	cursym		;; 02d3: 22 56 30    "V0
 01D6 CD0000    	call	L1c1e		;; 02d6: cd 1e 1c    ...
 01D9 32C210    	sta	L11c2		;; 02d9: 32 c2 11    2..
 01DC 2A0000    	lhld	memtop		;; 02dc: 2a 4d 30    *M0
 01DF E5        	push	h		;; 02df: e5          .
 01E0 B7        	ora	a		;; 02e0: b7          .
 01E1 CA7202    	jz	L0372		;; 02e1: ca 72 03    .r.
 01E4 C30002    	jmp	L0300		;; 02e4: c3 00 03    ...
                
 01E7 FE3B      L02e7:	cpi	';'		;; 02e7: fe 3b       .;
 01E9 C8        	rz			;; 02e9: c8          .
 01EA FE0D      	cpi	cr		;; 02ea: fe 0d       ..
 01EC C8        	rz			;; 02ec: c8          .
 01ED FE0A      L02ed:	cpi	lf		;; 02ed: fe 0a       ..
 01EF C8        	rz			;; 02ef: c8          .
 01F0 FE1A      	cpi	eof		;; 02f0: fe 1a       ..
 01F2 C8        	rz			;; 02f2: c8          .
 01F3 FE21      	cpi	'!'		;; 02f3: fe 21       ..
 01F5 C9        	ret			;; 02f5: c9          .
                
 01F6 3AC210    L02f6:	lda	L11c2		;; 02f6: 3a c2 11    :..
 01F9 B7        	ora	a		;; 02f9: b7          .
 01FA CA7202    	jz	L0372		;; 02fa: ca 72 03    .r.
 01FD CD0000    	call	L160c		;; 02fd: cd 0c 16    ...
 0200 3A0000    L0300:	lda	L3005		;; 0300: 3a 05 30    :.0
 0203 FE04      	cpi	004h		;; 0303: fe 04       ..
 0205 C24602    	jnz	L0346		;; 0305: c2 46 03    .F.
 0208 3A0000    	lda	L3009		;; 0308: 3a 09 30    :.0
 020B CDE701    	call	L02e7		;; 030b: cd e7 02    ...
 020E CA6502    	jz	L0365		;; 030e: ca 65 03    .e.
 0211 FE25      	cpi	'%'		;; 0311: fe 25       .%
 0213 C23B02    	jnz	L033b		;; 0313: c2 3b 03    .;.
 0216 CD6D0C    	call	L0d6d		;; 0316: cd 6d 0d    .m.
 0219 22DC10    	shld	L11dc		;; 0319: 22 dc 11    "..
 021C 3EFF      	mvi	a,0ffh		;; 031c: 3e ff       >.
 021E 32DB10    	sta	L11db		;; 031e: 32 db 11    2..
 0221 3A0000    	lda	L3005		;; 0321: 3a 05 30    :.0
 0224 FE04      	cpi	004h		;; 0324: fe 04       ..
 0226 C26202    	jnz	L0362		;; 0326: c2 62 03    .b.
 0229 3A0000    	lda	L3009		;; 0329: 3a 09 30    :.0
 022C F5        	push	psw		;; 032c: f5          .
 022D AF        	xra	a		;; 032d: af          .
 022E 320000    	sta	L3008		;; 032e: 32 08 30    2.0
 0231 CD0E0C    	call	L0d0e		;; 0331: cd 0e 0d    ...
 0234 CDDB02    	call	L03db		;; 0334: cd db 03    ...
 0237 F1        	pop	psw		;; 0337: f1          .
 0238 C35702    	jmp	L0357		;; 0338: c3 57 03    .W.
                
 023B FE2C      L033b:	cpi	','		;; 033b: fe 2c       .,
 023D C24602    	jnz	L0346		;; 033d: c2 46 03    .F.
 0240 CDD702    	call	L03d7		;; 0340: cd d7 03    ...
 0243 C3F601    	jmp	L02f6		;; 0343: c3 f6 02    ...
                
 0246 CDDB02    L0346:	call	L03db		;; 0346: cd db 03    ...
 0249 CD0000    	call	L1606		;; 0349: cd 06 16    ...
 024C 3A0000    	lda	L3005		;; 034c: 3a 05 30    :.0
 024F FE04      	cpi	004h		;; 034f: fe 04       ..
 0251 C26202    	jnz	L0362		;; 0351: c2 62 03    .b.
 0254 3A0000    	lda	L3009		;; 0354: 3a 09 30    :.0
 0257 CDE701    L0357:	call	L02e7		;; 0357: cd e7 02    ...
 025A CA6502    	jz	L0365		;; 035a: ca 65 03    .e.
 025D FE2C      	cpi	','		;; 035d: fe 2c       .,
 025F CAF601    	jz	L02f6		;; 035f: ca f6 02    ...
 0262 CDB410    L0362:	call	Serror		;; 0362: cd b4 11    ...
 0265 3AC210    L0365:	lda	L11c2		;; 0365: 3a c2 11    :..
 0268 B7        	ora	a		;; 0368: b7          .
 0269 CA7202    	jz	L0372		;; 0369: ca 72 03    .r.
 026C CDD702    	call	L03d7		;; 036c: cd d7 03    ...
 026F C36502    	jmp	L0365		;; 036f: c3 65 03    .e.
                
 0272 2A0000    L0372:	lhld	L3058		;; 0372: 2a 58 30    *X0
 0275 23        	inx	h		;; 0375: 23          #
 0276 E5        	push	h		;; 0376: e5          .
 0277 210000    L0377:	lxi	h,L305b		;; 0377: 21 5b 30    .[0
 027A 7E        	mov	a,m		;; 037a: 7e          ~
 027B CDED01    	call	L02ed		;; 037b: cd ed 02    ...
 027E CA8702    	jz	L0387		;; 037e: ca 87 03    ...
 0281 CD0000    	call	L1606		;; 0381: cd 06 16    ...
 0284 C37702    	jmp	L0377		;; 0384: c3 77 03    .w.
                
 0287 AF        L0387:	xra	a		;; 0387: af          .
 0288 77        	mov	m,a		;; 0388: 77          w
 0289 320000    	sta	L2f14		;; 0389: 32 14 2f    2./
 028C CDAC02    	call	L03ac		;; 038c: cd ac 03    ...
 028F 3ACD10    	lda	L11cd		;; 038f: 3a cd 11    :..
 0292 320000    	sta	L2f54		;; 0392: 32 54 2f    2T/
 0295 CD0000    	call	L1c2d		;; 0395: cd 2d 1c    .-.
 0298 E1        	pop	h		;; 0398: e1          .
 0299 220000    	shld	L2ef4		;; 0399: 22 f4 2e    "..
 029C E1        	pop	h		;; 039c: e1          .
 029D 220000    	shld	L2f24		;; 039d: 22 24 2f    "$/
 02A0 AF        	xra	a		;; 03a0: af          .
 02A1 320000    	sta	L2f14		;; 03a1: 32 14 2f    2./
 02A4 3E01      	mvi	a,001h		;; 03a4: 3e 01       >.
 02A6 320000    	sta	L2ea4		;; 03a6: 32 a4 2e    2..
 02A9 C37600    	jmp	L0176		;; 03a9: c3 76 01    .v.
                
 02AC 3A0000    L03ac:	lda	L2ea3		;; 03ac: 3a a3 2e    :..
 02AF B7        	ora	a		;; 03af: b7          .
 02B0 CAB802    	jz	L03b8		;; 03b0: ca b8 03    ...
 02B3 210500    	lxi	h,prnbuf+5	;; 03b3: 21 91 2f    ../
 02B6 362B      	mvi	m,'+'		;; 03b6: 36 2b       6+
 02B8 CD0000    L03b8:	call	L2595		;; 03b8: cd 95 25    ..%
 02BB 3E10      	mvi	a,010h		;; 03bb: 3e 10       >.
 02BD 320000    	sta	L3004		;; 03bd: 32 04 30    2.0
 02C0 C9        	ret			;; 03c0: c9          .
                
 02C1 3A0000    L03c1:	lda	L2ea3		;; 03c1: 3a a3 2e    :..
 02C4 B7        	ora	a		;; 03c4: b7          .
 02C5 CAAE10    	jz	Berror		;; 03c5: ca ae 11    ...
 02C8 3A0000    	lda	L2ea4		;; 03c8: 3a a4 2e    :..
 02CB FE03      	cpi	003h		;; 03cb: fe 03       ..
 02CD D0        	rnc			;; 03cd: d0          .
 02CE FE01      	cpi	001h		;; 03ce: fe 01       ..
 02D0 C8        	rz			;; 03d0: c8          .
 02D1 CD0000    	call	L1c30		;; 03d1: cd 30 1c    .0.
 02D4 C3C102    	jmp	L03c1		;; 03d4: c3 c1 03    ...
                
 02D7 AF        L03d7:	xra	a		;; 03d7: af          .
 02D8 320000    	sta	L3008		;; 03d8: 32 08 30    2.0
 02DB CD0000    L03db:	call	L1c39		;; 03db: cd 39 1c    .9.
 02DE CD0000    	call	L1c24		;; 03de: cd 24 1c    .$.
 02E1 CD0000    	call	L1c3c		;; 03e1: cd 3c 1c    .<.
 02E4 21C210    	lxi	h,L11c2		;; 03e4: 21 c2 11    ...
 02E7 35        	dcr	m		;; 03e7: 35          5
 02E8 C9        	ret			;; 03e8: c9          .
                
 02E9 2AC310    L03e9:	lhld	L11c3		;; 03e9: 2a c3 11    *..
 02EC 7D        	mov	a,l		;; 03ec: 7d          }
 02ED B4        	ora	h		;; 03ed: b4          .
 02EE C4A210    	cnz	Lerror		;; 03ee: c4 a2 11    ...
 02F1 2A0000    	lhld	cursym		;; 03f1: 2a 56 30    *V0
 02F4 22C310    	shld	L11c3		;; 03f4: 22 c3 11    "..
 02F7 CD0000    	call	L1606		;; 03f7: cd 06 16    ...
 02FA 3A0000    	lda	L3005		;; 03fa: 3a 05 30    :.0
 02FD FE04      	cpi	004h		;; 03fd: fe 04       ..
 02FF C27900    	jnz	L0179		;; 03ff: c2 79 01    .y.
 0302 3A0000    	lda	L3009		;; 0402: 3a 09 30    :.0
 0305 FE3A      	cpi	':'		;; 0405: fe 3a       .:
 0307 C27900    	jnz	L0179		;; 0407: c2 79 01    .y.
 030A C37600    	jmp	L0176		;; 040a: c3 76 01    .v.
                
 030D FE1A      L040d:	cpi	01ah		;; 040d: fe 1a       ..
 030F C2210B    	jnz	L0c21		;; 040f: c2 21 0c    ...
                	; pseudo-ops... B is index
 0312 58        	mov	e,b		;; 0412: 58          X
 0313 1600      	mvi	d,000h		;; 0413: 16 00       ..
 0315 1B        	dcx	d		;; 0415: 1b          .
 0316 212003    	lxi	h,L0420		;; 0416: 21 20 04    . .
 0319 19        	dad	d		;; 0419: 19          .
 031A 19        	dad	d		;; 041a: 19          .
 031B 5E        	mov	e,m		;; 041b: 5e          ^
 031C 23        	inx	h		;; 041c: 23          #
 031D 66        	mov	h,m		;; 041d: 66          f
 031E 6B        	mov	l,e		;; 041e: 6b          k
 031F E9        	pchl			;; 041f: e9          .
                
                ; pseudo-op table
 0320 5803      L0420:	dw	pDB	; 1 DB
 0322 A403      	dw	pDS	; 2 DS
 0324 BB03      	dw	pDW	; 3 DW
 0326 D903      	dw	pEND	; 4 END
 0328 1704      	dw	pENDIF	; 5 ENDIF
 032A 2004      	dw	pENDM	; 6 ENDM
 032C 5F05      	dw	pEQU	; 7 EQU
 032E 7E05      	dw	pIF	; 8 IF
 0330 9905      	dw	pMACRO	; 9 MACRO
 0332 0B07      	dw	pORG	; 10 ORG
 0334 3007      	dw	pSET	; 11 SET
 0336 5E07      	dw	pTITLE	; 12 TITLE
 0338 A207      	dw	pELSE	; 13 ELSE
 033A C408      	dw	pIRP	; 14 IRP
 033C C908      	dw	pIRPC	; 15 IRPC
 033E 5A09      	dw	pREPT	; 16 REPT
 0340 F909      	dw	pASEG	; 17 - not supported
 0342 FC09      	dw	pCSEG	; 18 CSEG - not supported
 0344 FF09      	dw	pDSEG	; 19 DSEG - not supported
 0346 020A      	dw	pNAME	; 20 NAME - not supported
 0348 050A      	dw	pPAGE	; 21 PAGE
 034A 320A      	dw	pEXITM	; 22 EXITM
 034C 350A      	dw	pEXTRN	; 23 EXTRN - not supported
 034E 380A      	dw	pLOCAL	; 24 LOCAL
 0350 A80A      	dw	pNPAGE	; 25 INPAGE - not supported
 0352 AB0A      	dw	pMACLI	; 26 MACLIB
 0354 000B      	dw	pPUBLI	; 27 PUBLIC - not supported
 0356 030B      	dw	pSTKLN	; 28 STKLN - not supported
                
 0358 CDF40D    pDB:	call	L0ef4		;; 0458: cd f4 0e    ...
 035B CD0000    L045b:	call	L1606		;; 045b: cd 06 16    ...
 035E 3A0000    	lda	L3005		;; 045e: 3a 05 30    :.0
 0361 FE03      	cpi	003h		;; 0461: fe 03       ..
 0363 C28903    	jnz	L0489		;; 0463: c2 89 04    ...
 0366 3A0000    	lda	L3008		;; 0466: 3a 08 30    :.0
 0369 3D        	dcr	a		;; 0469: 3d          =
 036A CA8903    	jz	L0489		;; 046a: ca 89 04    ...
 036D 47        	mov	b,a		;; 046d: 47          G
 036E 04        	inr	b		;; 046e: 04          .
 036F 04        	inr	b		;; 046f: 04          .
 0370 210000    	lxi	h,L3009		;; 0470: 21 09 30    ..0
 0373 05        L0473:	dcr	b		;; 0473: 05          .
 0374 CA8303    	jz	L0483		;; 0474: ca 83 04    ...
 0377 C5        	push	b		;; 0477: c5          .
 0378 46        	mov	b,m		;; 0478: 46          F
 0379 23        	inx	h		;; 0479: 23          #
 037A E5        	push	h		;; 047a: e5          .
 037B CD320E    	call	asmbyt		;; 047b: cd 32 0f    .2.
 037E E1        	pop	h		;; 047e: e1          .
 037F C1        	pop	b		;; 047f: c1          .
 0380 C37303    	jmp	L0473		;; 0480: c3 73 04    .s.
                
 0383 CD0000    L0483:	call	L1606		;; 0483: cd 06 16    ...
 0386 C39603    	jmp	L0496		;; 0486: c3 96 04    ...
                
 0389 CD0000    L0489:	call	L1203		;; 0489: cd 03 12    ...
 038C 2A0000    	lhld	L3049		;; 048c: 2a 49 30    *I0
 038F CD7C0C    	call	L0d7c		;; 048f: cd 7c 0d    .|.
 0392 45        	mov	b,l		;; 0492: 45          E
 0393 CD320E    	call	asmbyt		;; 0493: cd 32 0f    .2.
 0396 CDE30D    L0496:	call	L0ee3		;; 0496: cd e3 0e    ...
 0399 CD560C    	call	L0d56		;; 0499: cd 56 0d    .V.
 039C FE2C      	cpi	','		;; 049c: fe 2c       .,
 039E CA5B03    	jz	L045b		;; 049e: ca 5b 04    .[.
 03A1 C3D50C    	jmp	L0dd5		;; 04a1: c3 d5 0d    ...
                
 03A4 CDF40D    pDS:	call	L0ef4		;; 04a4: cd f4 0e    ...
 03A7 CD8A0E    	call	prnbeg		;; 04a7: cd 8a 0f    ...
 03AA CD6D0C    	call	L0d6d		;; 04aa: cd 6d 0d    .m.
 03AD EB        	xchg			;; 04ad: eb          .
 03AE 2A0000    	lhld	linadr		;; 04ae: 2a 52 30    *R0
 03B1 19        	dad	d		;; 04b1: 19          .
 03B2 220000    	shld	linadr		;; 04b2: 22 52 30    "R0
 03B5 220000    	shld	curadr		;; 04b5: 22 50 30    "P0
 03B8 C3D50C    	jmp	L0dd5		;; 04b8: c3 d5 0d    ...
                
 03BB CDF40D    pDW:	call	L0ef4		;; 04bb: cd f4 0e    ...
 03BE CD6D0C    L04be:	call	L0d6d		;; 04be: cd 6d 0d    .m.
 03C1 E5        	push	h		;; 04c1: e5          .
 03C2 45        	mov	b,l		;; 04c2: 45          E
 03C3 CD320E    	call	asmbyt		;; 04c3: cd 32 0f    .2.
 03C6 E1        	pop	h		;; 04c6: e1          .
 03C7 44        	mov	b,h		;; 04c7: 44          D
 03C8 CD320E    	call	asmbyt		;; 04c8: cd 32 0f    .2.
 03CB CDE30D    	call	L0ee3		;; 04cb: cd e3 0e    ...
 03CE CD560C    	call	L0d56		;; 04ce: cd 56 0d    .V.
 03D1 FE2C      	cpi	','		;; 04d1: fe 2c       .,
 03D3 CABE03    	jz	L04be		;; 04d3: ca be 04    ...
 03D6 C3D50C    	jmp	L0dd5		;; 04d6: c3 d5 0d    ...
                
 03D9 CDF40D    pEND:	call	L0ef4		;; 04d9: cd f4 0e    ...
 03DC CD8A0E    	call	prnbeg		;; 04dc: cd 8a 0f    ...
 03DF 3A0000    	lda	curerr		;; 04df: 3a 8c 2f    :./
 03E2 FE20      	cpi	' '		;; 04e2: fe 20       . 
 03E4 C2D50C    	jnz	L0dd5		;; 04e4: c2 d5 0d    ...
 03E7 CD6D0C    	call	L0d6d		;; 04e7: cd 6d 0d    .m.
 03EA 3A0000    	lda	curerr		;; 04ea: 3a 8c 2f    :./
 03ED FE20      	cpi	' '		;; 04ed: fe 20       . 
 03EF C2F503    	jnz	L04f5		;; 04ef: c2 f5 04    ...
 03F2 22C710    	shld	L11c7		;; 04f2: 22 c7 11    "..
 03F5 3E20      L04f5:	mvi	a,' '		;; 04f5: 3e 20       > 
 03F7 320000    	sta	curerr		;; 04f7: 32 8c 2f    2./
 03FA 3ACD10    	lda	L11cd		;; 04fa: 3a cd 11    :..
 03FD B7        	ora	a		;; 04fd: b7          .
 03FE C4AE10    	cnz	Berror		;; 04fe: c4 ae 11    ...
 0401 CD0000    	call	L1606		;; 0501: cd 06 16    ...
 0404 3A0000    	lda	L3005		;; 0504: 3a 05 30    :.0
 0407 FE04      	cpi	004h		;; 0507: fe 04       ..
 0409 C2200D    	jnz	L0e20		;; 0509: c2 20 0e    . .
 040C 3A0000    	lda	L3009		;; 050c: 3a 09 30    :.0
 040F FE0A      	cpi	lf		;; 050f: fe 0a       ..
 0411 C2200D    	jnz	L0e20		;; 0511: c2 20 0e    . .
 0414 C32D0D    	jmp	L0e2d		;; 0514: c3 2d 0e    .-.
                
 0417 CDF40D    pENDIF:	call	L0ef4		;; 0517: cd f4 0e    ...
 041A CDB208    	call	L09b2		;; 051a: cd b2 09    ...
 041D C3090B    	jmp	L0c09		;; 051d: c3 09 0c    ...
                
 0420 C5        pENDM:	push	b		;; 0520: c5          .
 0421 CDF40D    	call	L0ef4		;; 0521: cd f4 0e    ...
 0424 CDC102    	call	L03c1		;; 0524: cd c1 03    ...
 0427 210500    	lxi	h,prnbuf+5	;; 0527: 21 91 2f    ../
 042A 362B      	mvi	m,'+'		;; 052a: 36 2b       6+
 042C 3A0000    	lda	L2ea4		;; 052c: 3a a4 2e    :..
 042F FE03      	cpi	003h		;; 052f: fe 03       ..
 0431 D23B04    	jnc	L053b		;; 0531: d2 3b 05    .;.
 0434 C1        	pop	b		;; 0534: c1          .
 0435 CD0000    	call	L1c3f		;; 0535: cd 3f 1c    .?.
 0438 C31605    	jmp	L0616		;; 0538: c3 16 06    ...
                
 043B 2A0000    L053b:	lhld	L2f24		;; 053b: 2a 24 2f    *$/
 043E E5        	push	h		;; 053e: e5          .
 043F 2A0000    	lhld	L2eb4		;; 053f: 2a b4 2e    *..
 0442 220000    	shld	L2f24		;; 0542: 22 24 2f    "$/
 0445 CD0000    	call	L1c3f		;; 0545: cd 3f 1c    .?.
 0448 E1        	pop	h		;; 0548: e1          .
 0449 220000    	shld	L2f24		;; 0549: 22 24 2f    "$/
 044C F1        	pop	psw		;; 054c: f1          .
 044D FE06      	cpi	006h		;; 054d: fe 06       ..
 044F C21605    	jnz	L0616		;; 054f: c2 16 06    ...
 0452 3A0000    L0552:	lda	L2ea4		;; 0552: 3a a4 2e    :..
 0455 FE06      	cpi	006h		;; 0555: fe 06       ..
 0457 C26C04    	jnz	L056c		;; 0557: c2 6c 05    .l.
 045A 2A0000    	lhld	L2eb4		;; 055a: 2a b4 2e    *..
 045D 5E        	mov	e,m		;; 055d: 5e          ^
 045E 23        	inx	h		;; 055e: 23          #
 045F 56        	mov	d,m		;; 055f: 56          V
 0460 7B        	mov	a,e		;; 0560: 7b          {
 0461 B2        	ora	d		;; 0561: b2          .
 0462 CA1605    	jz	L0616		;; 0562: ca 16 06    ...
 0465 1B        	dcx	d		;; 0565: 1b          .
 0466 72        	mov	m,d		;; 0566: 72          r
 0467 2B        	dcx	h		;; 0567: 2b          +
 0468 73        	mov	m,e		;; 0568: 73          s
 0469 C33505    	jmp	L0635		;; 0569: c3 35 06    .5.
                
 046C 2A0000    L056c:	lhld	L2eb4		;; 056c: 2a b4 2e    *..
 046F 5E        	mov	e,m		;; 056f: 5e          ^
 0470 23        	inx	h		;; 0570: 23          #
 0471 56        	mov	d,m		;; 0571: 56          V
 0472 1A        	ldax	d		;; 0572: 1a          .
 0473 FE0D      	cpi	cr		;; 0573: fe 0d       ..
 0475 CA1605    	jz	L0616		;; 0575: ca 16 06    ...
 0478 B7        	ora	a		;; 0578: b7          .
 0479 CA9304    	jz	L0593		;; 0579: ca 93 05    ...
 047C 3A0000    	lda	L2ea4		;; 057c: 3a a4 2e    :..
 047F FE03      	cpi	003h		;; 057f: fe 03       ..
 0481 C2A004    	jnz	L05a0		;; 0581: c2 a0 05    ...
 0484 1A        	ldax	d		;; 0584: 1a          .
 0485 13        	inx	d		;; 0585: 13          .
 0486 72        	mov	m,d		;; 0586: 72          r
 0487 2B        	dcx	h		;; 0587: 2b          +
 0488 73        	mov	m,e		;; 0588: 73          s
 0489 210000    	lxi	h,L3008		;; 0589: 21 08 30    ..0
 048C 3601      	mvi	m,001h		;; 058c: 36 01       6.
 048E 23        	inx	h		;; 058e: 23          #
 048F 77        	mov	m,a		;; 058f: 77          w
 0490 C39A04    	jmp	L059a		;; 0590: c3 9a 05    ...
                
 0493 3E0D      L0593:	mvi	a,cr		;; 0593: 3e 0d       >.
 0495 12        	stax	d		;; 0595: 12          .
 0496 AF        	xra	a		;; 0596: af          .
 0497 320000    	sta	L3008		;; 0597: 32 08 30    2.0
 049A CD0000    L059a:	call	L1c39		;; 059a: cd 39 1c    .9.
 049D C30605    	jmp	L0606		;; 059d: c3 06 06    ...
                
 04A0 210000    L05a0:	lxi	h,L2f65		;; 05a0: 21 65 2f    .e/
 04A3 7E        	mov	a,m		;; 05a3: 7e          ~
 04A4 F5        	push	psw		;; 05a4: f5          .
 04A5 3600      	mvi	m,000h		;; 05a5: 36 00       6.
 04A7 210000    	lxi	h,L305b		;; 05a7: 21 5b 30    .[0
 04AA 7E        	mov	a,m		;; 05aa: 7e          ~
 04AB F5        	push	psw		;; 05ab: f5          .
 04AC 3600      	mvi	m,000h		;; 05ac: 36 00       6.
 04AE EB        	xchg			;; 05ae: eb          .
 04AF 220000    	shld	L2ef4		;; 05af: 22 f4 2e    "..
 04B2 7E        	mov	a,m		;; 05b2: 7e          ~
 04B3 D62C      	sui	02ch		;; 05b3: d6 2c       .,
 04B5 C2C504    	jnz	L05c5		;; 05b5: c2 c5 05    ...
 04B8 23        	inx	h		;; 05b8: 23          #
 04B9 E5        	push	h		;; 05b9: e5          .
 04BA 210000    	lxi	h,L3008		;; 05ba: 21 08 30    ..0
 04BD 77        	mov	m,a		;; 05bd: 77          w
 04BE CD0000    	call	L1c39		;; 05be: cd 39 1c    .9.
 04C1 E1        	pop	h		;; 05c1: e1          .
 04C2 C3F004    	jmp	L05f0		;; 05c2: c3 f0 05    ...
                
 04C5 E5        L05c5:	push	h		;; 05c5: e5          .
 04C6 CD0000    	call	L160c		;; 05c6: cd 0c 16    ...
 04C9 D1        	pop	d		;; 05c9: d1          .
 04CA CDE410    	call	L11e4		;; 05ca: cd e4 11    ...
 04CD C3D004    	jmp	L05d0		;; 05cd: c3 d0 05    ...
                
 04D0 CD0000    L05d0:	call	L1c39		;; 05d0: cd 39 1c    .9.
 04D3 2A0000    	lhld	L2ef4		;; 05d3: 2a f4 2e    *..
 04D6 7E        	mov	a,m		;; 05d6: 7e          ~
 04D7 B7        	ora	a		;; 05d7: b7          .
 04D8 C2E004    	jnz	L05e0		;; 05d8: c2 e0 05    ...
 04DB 360D      	mvi	m,cr		;; 05db: 36 0d       6.
 04DD C3F704    	jmp	L05f7		;; 05dd: c3 f7 05    ...
                
 04E0 2AE210    L05e0:	lhld	L11e2		;; 05e0: 2a e2 11    *..
 04E3 E5        	push	h		;; 05e3: e5          .
 04E4 CD0000    	call	L1606		;; 05e4: cd 06 16    ...
 04E7 3A0000    	lda	L3009		;; 05e7: 3a 09 30    :.0
 04EA FE2C      	cpi	','		;; 05ea: fe 2c       .,
 04EC C4B410    	cnz	Serror		;; 05ec: c4 b4 11    ...
 04EF E1        	pop	h		;; 05ef: e1          .
 04F0 CDEE10    L05f0:	call	L11ee		;; 05f0: cd ee 11    ...
 04F3 AF        	xra	a		;; 05f3: af          .
 04F4 320000    	sta	L2f66		;; 05f4: 32 66 2f    2f/
 04F7 EB        L05f7:	xchg			;; 05f7: eb          .
 04F8 2A0000    	lhld	L2eb4		;; 05f8: 2a b4 2e    *..
 04FB 73        	mov	m,e		;; 05fb: 73          s
 04FC 23        	inx	h		;; 05fc: 23          #
 04FD 72        	mov	m,d		;; 05fd: 72          r
 04FE F1        	pop	psw		;; 05fe: f1          .
 04FF 320000    	sta	L305b		;; 05ff: 32 5b 30    2[0
 0502 F1        	pop	psw		;; 0602: f1          .
 0503 320000    	sta	L2f65		;; 0603: 32 65 2f    2e/
 0506 2A0000    L0606:	lhld	L2eb4		;; 0606: 2a b4 2e    *..
 0509 23        	inx	h		;; 0609: 23          #
 050A 220000    	shld	L3058		;; 060a: 22 58 30    "X0
 050D CD0000    	call	L1c24		;; 060d: cd 24 1c    .$.
 0510 CD0000    	call	L1c3c		;; 0610: cd 3c 1c    .<.
 0513 C33505    	jmp	L0635		;; 0613: c3 35 06    .5.
                
 0516 CDAC02    L0616:	call	L03ac		;; 0616: cd ac 03    ...
 0519 2A0000    	lhld	L2f24		;; 0619: 2a 24 2f    *$/
 051C 220000    	shld	memtop		;; 061c: 22 4d 30    "M0
 051F CD0000    	call	L1c30		;; 061f: cd 30 1c    .0.
 0522 3A0000    	lda	L2f54		;; 0622: 3a 54 2f    :T/
 0525 32CD10    	sta	L11cd		;; 0625: 32 cd 11    2..
 0528 3A0000    	lda	L2f14		;; 0628: 3a 14 2f    :./
 052B 320000    	sta	L305b		;; 062b: 32 5b 30    2[0
 052E B7        	ora	a		;; 062e: b7          .
 052F C40000    	cnz	L1609		;; 062f: c4 09 16    ...
 0532 C37600    	jmp	L0176		;; 0632: c3 76 01    .v.
                
 0535 3E10      L0635:	mvi	a,010h		;; 0635: 3e 10       >.
 0537 320000    	sta	L3004		;; 0637: 32 04 30    2.0
 053A 2A0000    	lhld	L2ed4		;; 063a: 2a d4 2e    *..
 053D 220000    	shld	L2ef4		;; 063d: 22 f4 2e    "..
 0540 AF        	xra	a		;; 0640: af          .
 0541 320000    	sta	L305b		;; 0641: 32 5b 30    2[0
 0544 C37600    	jmp	L0176		;; 0644: c3 76 01    .v.
                
 0547 F5        L0647:	push	psw		;; 0647: f5          .
 0548 2A0000    	lhld	linadr		;; 0648: 2a 52 30    *R0
 054B E5        	push	h		;; 064b: e5          .
 054C CD6D0C    	call	L0d6d		;; 064c: cd 6d 0d    .m.
 054F 220000    	shld	linadr		;; 064f: 22 52 30    "R0
 0552 CD8D0E    	call	prnadr		;; 0652: cd 8d 0f    ...
 0555 E1        	pop	h		;; 0655: e1          .
 0556 220000    	shld	linadr		;; 0656: 22 52 30    "R0
 0559 F1        	pop	psw		;; 0659: f1          .
 055A 210600    	lxi	h,prnbuf+6	;; 065a: 21 92 2f    ../
 055D 77        	mov	m,a		;; 065d: 77          w
 055E C9        	ret			;; 065e: c9          .
                
 055F CDEA0D    pEQU:	call	L0eea		;; 065f: cd ea 0e    ...
 0562 CA200D    	jz	L0e20		;; 0662: ca 20 0e    . .
 0565 3E3D      	mvi	a,'='		;; 0665: 3e 3d       >=
 0567 CD4705    	call	L0647		;; 0667: cd 47 06    .G.
 056A 2A0000    	lhld	linadr		;; 066a: 2a 52 30    *R0
 056D E5        	push	h		;; 066d: e5          .
 056E 2A0000    	lhld	L3049		;; 066e: 2a 49 30    *I0
 0571 220000    	shld	linadr		;; 0671: 22 52 30    "R0
 0574 CDF40D    	call	L0ef4		;; 0674: cd f4 0e    ...
 0577 E1        	pop	h		;; 0677: e1          .
 0578 220000    	shld	linadr		;; 0678: 22 52 30    "R0
 057B C3D50C    	jmp	L0dd5		;; 067b: c3 d5 0d    ...
                
 057E CDF40D    pIF:	call	L0ef4		;; 067e: cd f4 0e    ...
 0581 CD6D0C    	call	L0d6d		;; 0681: cd 6d 0d    .m.
 0584 3A0000    	lda	curerr		;; 0684: 3a 8c 2f    :./
 0587 FE20      	cpi	' '		;; 0687: fe 20       . 
 0589 C2C107    	jnz	L08c1		;; 0689: c2 c1 08    ...
 058C 7D        	mov	a,l		;; 068c: 7d          }
 058D 1F        	rar			;; 068d: 1f          .
 058E 3E01      	mvi	a,001h		;; 068e: 3e 01       >.
 0590 D2C107    	jnc	L08c1		;; 0690: d2 c1 08    ...
 0593 CD9E08    	call	L099e		;; 0693: cd 9e 09    ...
 0596 C3D50C    	jmp	L0dd5		;; 0696: c3 d5 0d    ...
                
 0599 CDEA0D    pMACRO:	call	L0eea		;; 0699: cd ea 0e    ...
 059C C2A505    	jnz	L06a5		;; 069c: c2 a5 06    ...
 059F CDA210    	call	Lerror		;; 069f: cd a2 11    ...
 05A2 C3D50C    	jmp	L0dd5		;; 06a2: c3 d5 0d    ...
                
 05A5 3A0000    L06a5:	lda	pass		;; 06a5: 3a 4f 30    :O0
 05A8 B7        	ora	a		;; 06a8: b7          .
 05A9 CAC805    	jz	L06c8		;; 06a9: ca c8 06    ...
 05AC 2A0000    	lhld	cursym		;; 06ac: 2a 56 30    *V0
 05AF EB        	xchg			;; 06af: eb          .
 05B0 2AD810    	lhld	L11d8		;; 06b0: 2a d8 11    *..
 05B3 CDDD0D    	call	compr1		;; 06b3: cd dd 0e    ...
 05B6 CABF05    	jz	L06bf		;; 06b6: ca bf 06    ...
 05B9 CD9C10    	call	Perror		;; 06b9: cd 9c 11    ...
 05BC C3CD05    	jmp	L06cd		;; 06bc: c3 cd 06    ...
                
 05BF CD0000    L06bf:	call	L1c18		;; 06bf: cd 18 1c    ...
 05C2 22D810    	shld	L11d8		;; 06c2: 22 d8 11    "..
 05C5 C3CD05    	jmp	L06cd		;; 06c5: c3 cd 06    ...
                
 05C8 3E06      L06c8:	mvi	a,006h		;; 06c8: 3e 06       >.
 05CA CD0000    	call	L1c0f		;; 06ca: cd 0f 1c    ...
 05CD AF        L06cd:	xra	a		;; 06cd: af          .
 05CE 32DA10    	sta	L11da		;; 06ce: 32 da 11    2..
 05D1 3A0000    	lda	pass		;; 06d1: 3a 4f 30    :O0
 05D4 B7        	ora	a		;; 06d4: b7          .
 05D5 CC0000    	cz	L1c1b		;; 06d5: cc 1b 1c    ...
 05D8 CD0000    L06d8:	call	L1606		;; 06d8: cd 06 16    ...
 05DB 3A0000    	lda	L3005		;; 06db: 3a 05 30    :.0
 05DE FE01      	cpi	001h		;; 06de: fe 01       ..
 05E0 C20106    	jnz	L0701		;; 06e0: c2 01 07    ...
 05E3 3A0000    	lda	pass		;; 06e3: 3a 4f 30    :O0
 05E6 B7        	ora	a		;; 06e6: b7          .
 05E7 CC0000    	cz	L1c21		;; 06e7: cc 21 1c    ...
 05EA 21DA10    	lxi	h,L11da		;; 06ea: 21 da 11    ...
 05ED 34        	inr	m		;; 06ed: 34          4
 05EE CD0000    	call	L1606		;; 06ee: cd 06 16    ...
 05F1 3A0000    	lda	L3005		;; 06f1: 3a 05 30    :.0
 05F4 FE04      	cpi	004h		;; 06f4: fe 04       ..
 05F6 C20106    	jnz	L0701		;; 06f6: c2 01 07    ...
 05F9 3A0000    	lda	L3009		;; 06f9: 3a 09 30    :.0
 05FC FE2C      	cpi	','		;; 06fc: fe 2c       .,
 05FE CAD805    	jz	L06d8		;; 06fe: ca d8 06    ...
 0601 3E01      L0701:	mvi	a,001h		;; 0701: 3e 01       >.
 0603 CD2206    	call	L0722		;; 0703: cd 22 07    .".
 0606 CA340D    	jz	L0e34		;; 0706: ca 34 0e    .4.
 0609 3A0000    	lda	pass		;; 0709: 3a 4f 30    :O0
 060C B7        	ora	a		;; 070c: b7          .
 060D 3ADA10    	lda	L11da		;; 070d: 3a da 11    :..
 0610 CC0000    	cz	L1c1b		;; 0710: cc 1b 1c    ...
 0613 C3090B    	jmp	L0c09		;; 0713: c3 09 0c    ...
                
 0616 FE09      L0716:	cpi	tab		;; 0716: fe 09       ..
 0618 C8        	rz			;; 0718: c8          .
 0619 FE10      	cpi	010h		;; 0719: fe 10       ..
 061B C8        	rz			;; 071b: c8          .
 061C FE0E      	cpi	00eh		;; 071c: fe 0e       ..
 061E C8        	rz			;; 071e: c8          .
 061F FE0F      	cpi	00fh		;; 071f: fe 0f       ..
 0621 C9        	ret			;; 0721: c9          .
                
 0622 320000    L0722:	sta	L305c		;; 0722: 32 5c 30    2\0
 0625 3A0000    L0725:	lda	L3005		;; 0725: 3a 05 30    :.0
 0628 FE04      	cpi	004h		;; 0728: fe 04       ..
 062A C23D06    	jnz	L073d		;; 072a: c2 3d 07    .=.
 062D 3A0000    	lda	L3009		;; 072d: 3a 09 30    :.0
 0630 FE0D      	cpi	cr		;; 0730: fe 0d       ..
 0632 CA4606    	jz	L0746		;; 0732: ca 46 07    .F.
 0635 FE21      	cpi	'!'		;; 0735: fe 21       ..
 0637 CA4606    	jz	L0746		;; 0737: ca 46 07    .F.
 063A FE1A      	cpi	eof		;; 073a: fe 1a       ..
 063C C8        	rz			;; 073c: c8          .
 063D CDB410    L073d:	call	Serror		;; 073d: cd b4 11    ...
 0640 CD0000    	call	L1606		;; 0740: cd 06 16    ...
 0643 C32506    	jmp	L0725		;; 0743: c3 25 07    .%.
                
 0646 2A0000    L0746:	lhld	L3058		;; 0746: 2a 58 30    *X0
 0649 220000    	shld	L3060		;; 0749: 22 60 30    "`0
 064C 3E01      	mvi	a,001h		;; 074c: 3e 01       >.
 064E 320000    	sta	L305a		;; 074e: 32 5a 30    2Z0
 0651 CD0000    	call	L1606		;; 0751: cd 06 16    ...
 0654 2A0000    L0754:	lhld	L3058		;; 0754: 2a 58 30    *X0
 0657 22E010    L0757:	shld	L11e0		;; 0757: 22 e0 11    "..
 065A CD0000    	call	L1606		;; 075a: cd 06 16    ...
 065D 3A0000    	lda	L3005		;; 075d: 3a 05 30    :.0
 0660 FE04      	cpi	004h		;; 0760: fe 04       ..
 0662 C26B06    	jnz	L076b		;; 0762: c2 6b 07    .k.
 0665 3A0000    	lda	L3009		;; 0765: 3a 09 30    :.0
 0668 FE1A      	cpi	eof		;; 0768: fe 1a       ..
 066A C8        	rz			;; 076a: c8          .
 066B FE01      L076b:	cpi	001h		;; 076b: fe 01       ..
 066D C25406    	jnz	L0754		;; 076d: c2 54 07    .T.
 0670 CD0000    	call	L2106		;; 0770: cd 06 21    ...
 0673 C25406    	jnz	L0754		;; 0773: c2 54 07    .T.
 0676 F5        	push	psw		;; 0776: f5          .
 0677 3A0000    	lda	L305c		;; 0777: 3a 5c 30    :\0
 067A FE01      	cpi	001h		;; 077a: fe 01       ..
 067C C2A606    	jnz	L07a6		;; 077c: c2 a6 07    ...
 067F 3A0000    	lda	pass		;; 077f: 3a 4f 30    :O0
 0682 B7        	ora	a		;; 0782: b7          .
 0683 C2A606    	jnz	L07a6		;; 0783: c2 a6 07    ...
 0686 3A0000    	lda	L3008		;; 0786: 3a 08 30    :.0
 0689 3D        	dcr	a		;; 0789: 3d          =
 068A CAA606    	jz	L07a6		;; 078a: ca a6 07    ...
 068D 0D        	dcr	c		;; 078d: 0d          .
 068E CAA606    	jz	L07a6		;; 078e: ca a6 07    ...
 0691 C5        	push	b		;; 0791: c5          .
 0692 2AE010    	lhld	L11e0		;; 0792: 2a e0 11    *..
 0695 220000    	shld	L3058		;; 0795: 22 58 30    "X0
 0698 CD0000    	call	L2109		;; 0798: cd 09 21    ...
 069B CD0000    	call	L1c27		;; 079b: cd 27 1c    .'.
 069E 3A0000    	lda	L305b		;; 079e: 3a 5b 30    :[0
 06A1 B7        	ora	a		;; 07a1: b7          .
 06A2 C40000    	cnz	L1c27		;; 07a2: c4 27 1c    .'.
 06A5 C1        	pop	b		;; 07a5: c1          .
 06A6 F1        L07a6:	pop	psw		;; 07a6: f1          .
 06A7 FE1A      	cpi	eof		;; 07a7: fe 1a       ..
 06A9 C25406    	jnz	L0754		;; 07a9: c2 54 07    .T.
 06AC 78        	mov	a,b		;; 07ac: 78          x
 06AD CD1606    	call	L0716		;; 07ad: cd 16 07    ...
 06B0 C2BB06    	jnz	L07bb		;; 07b0: c2 bb 07    ...
 06B3 210000    	lxi	h,L305a		;; 07b3: 21 5a 30    .Z0
 06B6 34        	inr	m		;; 07b6: 34          4
 06B7 C8        	rz			;; 07b7: c8          .
 06B8 C35406    	jmp	L0754		;; 07b8: c3 54 07    .T.
                
 06BB FE06      L07bb:	cpi	006h		;; 07bb: fe 06       ..
 06BD C25406    	jnz	L0754		;; 07bd: c2 54 07    .T.
 06C0 210000    	lxi	h,L305a		;; 07c0: 21 5a 30    .Z0
 06C3 35        	dcr	m		;; 07c3: 35          5
 06C4 C25406    	jnz	L0754		;; 07c4: c2 54 07    .T.
 06C7 3A0000    	lda	L305c		;; 07c7: 3a 5c 30    :\0
 06CA FE01      	cpi	001h		;; 07ca: fe 01       ..
 06CC C2F606    	jnz	L07f6		;; 07cc: c2 f6 07    ...
 06CF 210000    	lxi	h,0		;; 07cf: 21 00 00    ...
 06D2 22C310    	shld	L11c3		;; 07d2: 22 c3 11    "..
 06D5 3A0000    	lda	L305d		;; 07d5: 3a 5d 30    :]0
 06D8 B7        	ora	a		;; 07d8: b7          .
 06D9 CAE506    	jz	L07e5		;; 07d9: ca e5 07    ...
 06DC 210000    	lxi	h,0		;; 07dc: 21 00 00    ...
 06DF CD0000    	call	L1c15		;; 07df: cd 15 1c    ...
 06E2 C3F106    	jmp	L07f1		;; 07e2: c3 f1 07    ...
                
 06E5 2AD610    L07e5:	lhld	L11d6		;; 07e5: 2a d6 11    *..
 06E8 CD0000    	call	L1c15		;; 07e8: cd 15 1c    ...
 06EB 2A0000    	lhld	cursym		;; 07eb: 2a 56 30    *V0
 06EE 22D610    	shld	L11d6		;; 07ee: 22 d6 11    "..
 06F1 3A0000    L07f1:	lda	pass		;; 07f1: 3a 4f 30    :O0
 06F4 B7        	ora	a		;; 07f4: b7          .
 06F5 C0        	rnz			;; 07f5: c0          .
 06F6 2A0000    L07f6:	lhld	L3058		;; 07f6: 2a 58 30    *X0
 06F9 7E        	mov	a,m		;; 07f9: 7e          ~
 06FA FE0D      	cpi	cr		;; 07fa: fe 0d       ..
 06FC C4B410    	cnz	Serror		;; 07fc: c4 b4 11    ...
 06FF 2A0000    	lhld	L3058		;; 07ff: 2a 58 30    *X0
 0702 360D      	mvi	m,cr		;; 0802: 36 0d       6.
 0704 AF        	xra	a		;; 0804: af          .
 0705 CD0000    	call	L1c27		;; 0805: cd 27 1c    .'.
 0708 AF        	xra	a		;; 0808: af          .
 0709 3C        	inr	a		;; 0809: 3c          <
 070A C9        	ret			;; 080a: c9          .
                
 070B CD6D0C    pORG:	call	L0d6d		;; 080b: cd 6d 0d    .m.
 070E 3A0000    	lda	curerr		;; 080e: 3a 8c 2f    :./
 0711 FE20      	cpi	' '		;; 0811: fe 20       . 
 0713 C2D50C    	jnz	L0dd5		;; 0813: c2 d5 0d    ...
 0716 3A0000    	lda	Rflag		;; 0816: 3a 67 30    :g0
 0719 B7        	ora	a		;; 0819: b7          .
 071A CA2107    	jz	L0821		;; 081a: ca 21 08    ...
 071D 110001    	lxi	d,256		;; 081d: 11 00 01    ...
 0720 19        	dad	d		;; 0820: 19          .
 0721 220000    L0821:	shld	linadr		;; 0821: 22 52 30    "R0
 0724 220000    	shld	curadr		;; 0824: 22 50 30    "P0
 0727 CDF40D    	call	L0ef4		;; 0827: cd f4 0e    ...
 072A CD8A0E    	call	prnbeg		;; 082a: cd 8a 0f    ...
 072D C3D50C    	jmp	L0dd5		;; 082d: c3 d5 0d    ...
                
 0730 CDEA0D    pSET:	call	L0eea		;; 0830: cd ea 0e    ...
 0733 CA200D    	jz	L0e20		;; 0833: ca 20 0e    . .
 0736 CD0000    	call	L1c12		;; 0836: cd 12 1c    ...
 0739 B7        	ora	a		;; 0839: b7          .
 073A CA4207    	jz	L0842		;; 083a: ca 42 08    .B.
 073D FE05      	cpi	005h		;; 083d: fe 05       ..
 073F C4A210    	cnz	Lerror		;; 083f: c4 a2 11    ...
 0742 3E05      L0842:	mvi	a,005h		;; 0842: 3e 05       >.
 0744 CD0000    	call	L1c0f		;; 0844: cd 0f 1c    ...
 0747 3E23      	mvi	a,'#'		;; 0847: 3e 23       >#
 0749 CD4705    	call	L0647		;; 0849: cd 47 06    .G.
 074C CDEA0D    	call	L0eea		;; 084c: cd ea 0e    ...
 074F 2A0000    	lhld	L3049		;; 084f: 2a 49 30    *I0
 0752 CD0000    	call	L1c15		;; 0852: cd 15 1c    ...
 0755 210000    	lxi	h,0		;; 0855: 21 00 00    ...
 0758 22C310    	shld	L11c3		;; 0858: 22 c3 11    "..
 075B C3D50C    	jmp	L0dd5		;; 085b: c3 d5 0d    ...
                
 075E CDF40D    pTITLE:	call	L0ef4		;; 085e: cd f4 0e    ...
 0761 CD0000    	call	L1606		;; 0861: cd 06 16    ...
 0764 3A0000    	lda	L3005		;; 0864: 3a 05 30    :.0
 0767 FE03      	cpi	003h		;; 0867: fe 03       ..
 0769 C2200D    	jnz	L0e20		;; 0869: c2 20 0e    . .
 076C 3A0000    	lda	L305a		;; 086c: 3a 5a 30    :Z0
 076F B7        	ora	a		;; 086f: b7          .
 0770 C2200D    	jnz	L0e20		;; 0870: c2 20 0e    . .
 0773 210000    	lxi	h,L3008		;; 0873: 21 08 30    ..0
 0776 4E        	mov	c,m		;; 0876: 4e          N
 0777 EB        	xchg			;; 0877: eb          .
 0778 2A0000    	lhld	L304b		;; 0878: 2a 4b 30    *K0
 077B 3A0000    	lda	pass		;; 087b: 3a 4f 30    :O0
 077E B7        	ora	a		;; 087e: b7          .
 077F C29F07    	jnz	L089f		;; 087f: c2 9f 08    ...
 0782 220000    	shld	L3062		;; 0882: 22 62 30    "b0
 0785 2B        	dcx	h		;; 0885: 2b          +
 0786 220000    	shld	L3058		;; 0886: 22 58 30    "X0
 0789 79        L0889:	mov	a,c		;; 0889: 79          y
 078A B7        	ora	a		;; 088a: b7          .
 078B CA9B07    	jz	L089b		;; 088b: ca 9b 08    ...
 078E 13        	inx	d		;; 088e: 13          .
 078F 1A        	ldax	d		;; 088f: 1a          .
 0790 0D        	dcr	c		;; 0890: 0d          .
 0791 D5        	push	d		;; 0891: d5          .
 0792 C5        	push	b		;; 0892: c5          .
 0793 CD0000    	call	L1c27		;; 0893: cd 27 1c    .'.
 0796 C1        	pop	b		;; 0896: c1          .
 0797 D1        	pop	d		;; 0897: d1          .
 0798 C38907    	jmp	L0889		;; 0898: c3 89 08    ...
                
 079B AF        L089b:	xra	a		;; 089b: af          .
 079C CD0000    	call	L1c27		;; 089c: cd 27 1c    .'.
 079F C3090B    L089f:	jmp	L0c09		;; 089f: c3 09 0c    ...
                
 07A2 CDF40D    pELSE:	call	L0ef4		;; 08a2: cd f4 0e    ...
 07A5 CDB208    	call	L09b2		;; 08a5: cd b2 09    ...
 07A8 FE01      	cpi	001h		;; 08a8: fe 01       ..
 07AA 3E02      	mvi	a,002h		;; 08aa: 3e 02       >.
 07AC CAC107    	jz	L08c1		;; 08ac: ca c1 08    ...
 07AF CDAE10    	call	Berror		;; 08af: cd ae 11    ...
 07B2 C3090B    	jmp	L0c09		;; 08b2: c3 09 0c    ...
                
 07B5 FE09      L08b5:	cpi	tab		;; 08b5: fe 09       ..
 07B7 C8        	rz			;; 08b7: c8          .
 07B8 FE0E      	cpi	00eh		;; 08b8: fe 0e       ..
 07BA C8        	rz			;; 08ba: c8          .
 07BB FE0F      	cpi	00fh		;; 08bb: fe 0f       ..
 07BD C8        	rz			;; 08bd: c8          .
 07BE FE10      	cpi	010h		;; 08be: fe 10       ..
 07C0 C9        	ret			;; 08c0: c9          .
                
 07C1 32CA10    L08c1:	sta	L11ca		;; 08c1: 32 ca 11    2..
 07C4 AF        	xra	a		;; 08c4: af          .
 07C5 32CB10    	sta	L11cb		;; 08c5: 32 cb 11    2..
 07C8 32CC10    	sta	L11cc		;; 08c8: 32 cc 11    2..
 07CB 3A0000    L08cb:	lda	L3005		;; 08cb: 3a 05 30    :.0
 07CE FE04      	cpi	004h		;; 08ce: fe 04       ..
 07D0 C2F107    	jnz	L08f1		;; 08d0: c2 f1 08    ...
 07D3 3A0000    	lda	L3009		;; 08d3: 3a 09 30    :.0
 07D6 FE0D      	cpi	cr		;; 08d6: fe 0d       ..
 07D8 C2E107    	jnz	L08e1		;; 08d8: c2 e1 08    ...
 07DB CD0000    	call	L1606		;; 08db: cd 06 16    ...
 07DE C3F707    	jmp	L08f7		;; 08de: c3 f7 08    ...
                
 07E1 FE21      L08e1:	cpi	'!'		;; 08e1: fe 21       ..
 07E3 CAF707    	jz	L08f7		;; 08e3: ca f7 08    ...
 07E6 FE1A      	cpi	eof		;; 08e6: fe 1a       ..
 07E8 C2F107    	jnz	L08f1		;; 08e8: c2 f1 08    ...
 07EB CDAE10    	call	Berror		;; 08eb: cd ae 11    ...
 07EE C32D0D    	jmp	L0e2d		;; 08ee: c3 2d 0e    .-.
                
 07F1 CD0000    L08f1:	call	L1606		;; 08f1: cd 06 16    ...
 07F4 C3CB07    	jmp	L08cb		;; 08f4: c3 cb 08    ...
                
 07F7 CD0000    L08f7:	call	L1606		;; 08f7: cd 06 16    ...
 07FA 3A0000    	lda	L3005		;; 08fa: 3a 05 30    :.0
 07FD FE02      	cpi	002h		;; 08fd: fe 02       ..
 07FF CC0000    	cz	L1606		;; 08ff: cc 06 16    ...
 0802 3A0000    	lda	L3005		;; 0902: 3a 05 30    :.0
 0805 FE01      	cpi	001h		;; 0905: fe 01       ..
 0807 C2CB07    	jnz	L08cb		;; 0907: c2 cb 08    ...
 080A CD0000    	call	L2106		;; 090a: cd 06 21    ...
 080D CA3408    	jz	L0934		;; 090d: ca 34 09    .4.
 0810 CD0000    	call	L1606		;; 0910: cd 06 16    ...
 0813 3A0000    	lda	L3005		;; 0913: 3a 05 30    :.0
 0816 FE04      	cpi	004h		;; 0916: fe 04       ..
 0818 C22608    	jnz	L0926		;; 0918: c2 26 09    .&.
 081B 3A0000    	lda	L3009		;; 091b: 3a 09 30    :.0
 081E FE3A      	cpi	':'		;; 091e: fe 3a       .:
 0820 C2CB07    	jnz	L08cb		;; 0920: c2 cb 08    ...
 0823 CD0000    	call	L1606		;; 0923: cd 06 16    ...
 0826 3A0000    L0926:	lda	L3005		;; 0926: 3a 05 30    :.0
 0829 FE01      	cpi	001h		;; 0929: fe 01       ..
 082B C2CB07    	jnz	L08cb		;; 092b: c2 cb 08    ...
 082E CD0000    	call	L2106		;; 092e: cd 06 21    ...
 0831 C2CB07    	jnz	L08cb		;; 0931: c2 cb 08    ...
 0834 FE1A      L0934:	cpi	eof		;; 0934: fe 1a       ..
 0836 C2CB07    	jnz	L08cb		;; 0936: c2 cb 08    ...
 0839 78        	mov	a,b		;; 0939: 78          x
 083A FE08      	cpi	008h		;; 093a: fe 08       ..
 083C C24908    	jnz	L0949		;; 093c: c2 49 09    .I.
 083F 21CB10    	lxi	h,L11cb		;; 093f: 21 cb 11    ...
 0842 34        	inr	m		;; 0942: 34          4
 0843 CCA810    	cz	Oerror		;; 0943: cc a8 11    ...
 0846 C3CB07    	jmp	L08cb		;; 0946: c3 cb 08    ...
                
 0849 FE0D      L0949:	cpi	cr		;; 0949: fe 0d       ..
 084B C26508    	jnz	L0965		;; 094b: c2 65 09    .e.
 084E 3ACB10    	lda	L11cb		;; 094e: 3a cb 11    :..
 0851 B7        	ora	a		;; 0951: b7          .
 0852 C2CB07    	jnz	L08cb		;; 0952: c2 cb 08    ...
 0855 3ACA10    	lda	L11ca		;; 0955: 3a ca 11    :..
 0858 FE02      	cpi	002h		;; 0958: fe 02       ..
 085A CCAE10    	cz	Berror		;; 095a: cc ae 11    ...
 085D 3E02      	mvi	a,002h		;; 095d: 3e 02       >.
 085F CD9E08    	call	L099e		;; 095f: cd 9e 09    ...
 0862 C3090B    	jmp	L0c09		;; 0962: c3 09 0c    ...
                
 0865 FE05      L0965:	cpi	005h		;; 0965: fe 05       ..
 0867 C27D08    	jnz	L097d		;; 0967: c2 7d 09    .}.
 086A 21CB10    	lxi	h,L11cb		;; 096a: 21 cb 11    ...
 086D 7E        	mov	a,m		;; 096d: 7e          ~
 086E 35        	dcr	m		;; 096e: 35          5
 086F B7        	ora	a		;; 096f: b7          .
 0870 C2CB07    	jnz	L08cb		;; 0970: c2 cb 08    ...
 0873 3ACC10    	lda	L11cc		;; 0973: 3a cc 11    :..
 0876 B7        	ora	a		;; 0976: b7          .
 0877 C4AE10    	cnz	Berror		;; 0977: c4 ae 11    ...
 087A C3090B    	jmp	L0c09		;; 097a: c3 09 0c    ...
                
 087D CDB507    L097d:	call	L08b5		;; 097d: cd b5 08    ...
 0880 C28D08    	jnz	L098d		;; 0980: c2 8d 09    ...
 0883 21CC10    	lxi	h,L11cc		;; 0983: 21 cc 11    ...
 0886 34        	inr	m		;; 0986: 34          4
 0887 CCA810    	cz	Oerror		;; 0987: cc a8 11    ...
 088A C3CB07    	jmp	L08cb		;; 098a: c3 cb 08    ...
                
 088D FE06      L098d:	cpi	006h		;; 098d: fe 06       ..
 088F C2CB07    	jnz	L08cb		;; 098f: c2 cb 08    ...
 0892 21CC10    	lxi	h,L11cc		;; 0992: 21 cc 11    ...
 0895 7E        	mov	a,m		;; 0995: 7e          ~
 0896 35        	dcr	m		;; 0996: 35          5
 0897 B7        	ora	a		;; 0997: b7          .
 0898 C2CB07    	jnz	L08cb		;; 0998: c2 cb 08    ...
 089B C32004    	jmp	pENDM		;; 099b: c3 20 05    . .
                
 089E 47        L099e:	mov	b,a		;; 099e: 47          G
 089F 21CD10    	lxi	h,L11cd		;; 099f: 21 cd 11    ...
 08A2 7E        	mov	a,m		;; 09a2: 7e          ~
 08A3 FE08      	cpi	008h		;; 09a3: fe 08       ..
 08A5 D2A810    	jnc	Oerror		;; 09a5: d2 a8 11    ...
 08A8 34        	inr	m		;; 09a8: 34          4
 08A9 5F        	mov	e,a		;; 09a9: 5f          _
 08AA 1600      	mvi	d,000h		;; 09aa: 16 00       ..
 08AC 21CE10    	lxi	h,L11ce		;; 09ac: 21 ce 11    ...
 08AF 19        	dad	d		;; 09af: 19          .
 08B0 70        	mov	m,b		;; 09b0: 70          p
 08B1 C9        	ret			;; 09b1: c9          .
                
 08B2 21CD10    L09b2:	lxi	h,L11cd		;; 09b2: 21 cd 11    ...
 08B5 7E        	mov	a,m		;; 09b5: 7e          ~
 08B6 B7        	ora	a		;; 09b6: b7          .
 08B7 CAAE10    	jz	Berror		;; 09b7: ca ae 11    ...
 08BA 35        	dcr	m		;; 09ba: 35          5
 08BB 5E        	mov	e,m		;; 09bb: 5e          ^
 08BC 1600      	mvi	d,000h		;; 09bc: 16 00       ..
 08BE 21CE10    	lxi	h,L11ce		;; 09be: 21 ce 11    ...
 08C1 19        	dad	d		;; 09c1: 19          .
 08C2 7E        	mov	a,m		;; 09c2: 7e          ~
 08C3 C9        	ret			;; 09c3: c9          .
                
 08C4 3E05      pIRP:	mvi	a,005h		;; 09c4: 3e 05       >.
 08C6 C3CB08    	jmp	L09cb		;; 09c6: c3 cb 09    ...
                
 08C9 3E03      pIRPC:	mvi	a,003h		;; 09c9: 3e 03       >.
 08CB 320000    L09cb:	sta	L305c		;; 09cb: 32 5c 30    2\0
 08CE CDF40D    	call	L0ef4		;; 09ce: cd f4 0e    ...
 08D1 CD0000    	call	L1606		;; 09d1: cd 06 16    ...
 08D4 3A0000    	lda	L3005		;; 09d4: 3a 05 30    :.0
 08D7 FE01      	cpi	001h		;; 09d7: fe 01       ..
 08D9 C24E09    	jnz	L0a4e		;; 09d9: c2 4e 0a    .N.
 08DC 2A0000    	lhld	L304b		;; 09dc: 2a 4b 30    *K0
 08DF 22C510    	shld	L11c5		;; 09df: 22 c5 11    "..
 08E2 2B        	dcx	h		;; 09e2: 2b          +
 08E3 220000    	shld	L3058		;; 09e3: 22 58 30    "X0
 08E6 3A0000    	lda	L3008		;; 09e6: 3a 08 30    :.0
 08E9 FE10      	cpi	010h		;; 09e9: fe 10       ..
 08EB DAF008    	jc	L09f0		;; 09eb: da f0 09    ...
 08EE 3E10      	mvi	a,010h		;; 09ee: 3e 10       >.
 08F0 C603      L09f0:	adi	003h		;; 09f0: c6 03       ..
 08F2 CD0000    	call	L1c27		;; 09f2: cd 27 1c    .'.
 08F5 AF        	xra	a		;; 09f5: af          .
 08F6 CD0000    	call	L1c27		;; 09f6: cd 27 1c    .'.
 08F9 CD0000    	call	L1c21		;; 09f9: cd 21 1c    ...
 08FC CD0000    	call	L1606		;; 09fc: cd 06 16    ...
 08FF 3A0000    	lda	L3005		;; 09ff: 3a 05 30    :.0
 0902 FE04      	cpi	004h		;; 0a02: fe 04       ..
 0904 C24E09    	jnz	L0a4e		;; 0a04: c2 4e 0a    .N.
 0907 3A0000    	lda	L3009		;; 0a07: 3a 09 30    :.0
 090A FE2C      	cpi	','		;; 0a0a: fe 2c       .,
 090C C24E09    	jnz	L0a4e		;; 0a0c: c2 4e 0a    .N.
 090F CD0000    	call	L160c		;; 0a0f: cd 0c 16    ...
 0912 3A0000    	lda	L3008		;; 0a12: 3a 08 30    :.0
 0915 B7        	ora	a		;; 0a15: b7          .
 0916 C21F09    	jnz	L0a1f		;; 0a16: c2 1f 0a    ...
 0919 CD0000    	call	L1606		;; 0a19: cd 06 16    ...
 091C C33E09    	jmp	L0a3e		;; 0a1c: c3 3e 0a    .>.
                
 091F CD0F0B    L0a1f:	call	L0c0f		;; 0a1f: cd 0f 0c    ...
 0922 CA3E09    	jz	L0a3e		;; 0a22: ca 3e 0a    .>.
 0925 210000    	lxi	h,L3008		;; 0a25: 21 08 30    ..0
 0928 4E        	mov	c,m		;; 0a28: 4e          N
 0929 23        L0a29:	inx	h		;; 0a29: 23          #
 092A 7E        	mov	a,m		;; 0a2a: 7e          ~
 092B C5        	push	b		;; 0a2b: c5          .
 092C E5        	push	h		;; 0a2c: e5          .
 092D CD0000    	call	L1c27		;; 0a2d: cd 27 1c    .'.
 0930 E1        	pop	h		;; 0a30: e1          .
 0931 C1        	pop	b		;; 0a31: c1          .
 0932 0D        	dcr	c		;; 0a32: 0d          .
 0933 C22909    	jnz	L0a29		;; 0a33: c2 29 0a    .).
 0936 3E0D      	mvi	a,cr		;; 0a36: 3e 0d       >.
 0938 CD0000    	call	L1c27		;; 0a38: cd 27 1c    .'.
 093B CD0000    	call	L1606		;; 0a3b: cd 06 16    ...
 093E AF        L0a3e:	xra	a		;; 0a3e: af          .
 093F CD0000    	call	L1c27		;; 0a3f: cd 27 1c    .'.
 0942 2A0000    	lhld	L304b		;; 0a42: 2a 4b 30    *K0
 0945 220000    	shld	cursym		;; 0a45: 22 56 30    "V0
 0948 3A0000    	lda	L305c		;; 0a48: 3a 5c 30    :\0
 094B C37809    	jmp	L0a78		;; 0a4b: c3 78 0a    .x.
                
 094E CDB410    L0a4e:	call	Serror		;; 0a4e: cd b4 11    ...
 0951 3A0000    	lda	L305c		;; 0a51: 3a 5c 30    :\0
 0954 CD2206    	call	L0722		;; 0a54: cd 22 07    .".
 0957 C3090B    	jmp	L0c09		;; 0a57: c3 09 0c    ...
                
 095A CD6D0C    pREPT:	call	L0d6d		;; 0a5a: cd 6d 0d    .m.
 095D E5        	push	h		;; 0a5d: e5          .
 095E 7D        	mov	a,l		;; 0a5e: 7d          }
 095F 2A0000    	lhld	L304b		;; 0a5f: 2a 4b 30    *K0
 0962 22C510    	shld	L11c5		;; 0a62: 22 c5 11    "..
 0965 2B        	dcx	h		;; 0a65: 2b          +
 0966 220000    	shld	L3058		;; 0a66: 22 58 30    "X0
 0969 CD0000    	call	L1c27		;; 0a69: cd 27 1c    .'.
 096C F1        	pop	psw		;; 0a6c: f1          .
 096D CD0000    	call	L1c27		;; 0a6d: cd 27 1c    .'.
 0970 2A0000    	lhld	L304b		;; 0a70: 2a 4b 30    *K0
 0973 220000    	shld	cursym		;; 0a73: 22 56 30    "V0
 0976 3E06      	mvi	a,006h		;; 0a76: 3e 06       >.
 0978 CD2206    L0a78:	call	L0722		;; 0a78: cd 22 07    .".
 097B CA340D    	jz	L0e34		;; 0a7b: ca 34 0e    .4.
 097E CDAC02    	call	L03ac		;; 0a7e: cd ac 03    ...
 0981 CD0000    	call	L1606		;; 0a81: cd 06 16    ...
 0984 3ACD10    	lda	L11cd		;; 0a84: 3a cd 11    :..
 0987 320000    	sta	L2f54		;; 0a87: 32 54 2f    2T/
 098A 3A0000    	lda	L305b		;; 0a8a: 3a 5b 30    :[0
 098D FE0A      	cpi	lf		;; 0a8d: fe 0a       ..
 098F C29309    	jnz	L0a93		;; 0a8f: c2 93 0a    ...
 0992 AF        	xra	a		;; 0a92: af          .
 0993 320000    L0a93:	sta	L2f14		;; 0a93: 32 14 2f    2./
 0996 CD0000    	call	L1c2d		;; 0a96: cd 2d 1c    .-.
 0999 2A0000    	lhld	memtop		;; 0a99: 2a 4d 30    *M0
 099C 220000    	shld	L2f24		;; 0a9c: 22 24 2f    "$/
 099F 2A0000    L0a9f:	lhld	L3058		;; 0a9f: 2a 58 30    *X0
 09A2 EB        	xchg			;; 0aa2: eb          .
 09A3 21C510    	lxi	h,L11c5		;; 0aa3: 21 c5 11    ...
 09A6 7B        	mov	a,e		;; 0aa6: 7b          {
 09A7 96        	sub	m		;; 0aa7: 96          .
 09A8 23        	inx	h		;; 0aa8: 23          #
 09A9 7A        	mov	a,d		;; 0aa9: 7a          z
 09AA 9E        	sbb	m		;; 0aaa: 9e          .
 09AB EB        	xchg			;; 0aab: eb          .
 09AC DABF09    	jc	L0abf		;; 0aac: da bf 0a    ...
 09AF 7E        	mov	a,m		;; 0aaf: 7e          ~
 09B0 2B        	dcx	h		;; 0ab0: 2b          +
 09B1 220000    	shld	L3058		;; 0ab1: 22 58 30    "X0
 09B4 2A0000    	lhld	memtop		;; 0ab4: 2a 4d 30    *M0
 09B7 2B        	dcx	h		;; 0ab7: 2b          +
 09B8 220000    	shld	memtop		;; 0ab8: 22 4d 30    "M0
 09BB 77        	mov	m,a		;; 0abb: 77          w
 09BC C39F09    	jmp	L0a9f		;; 0abc: c3 9f 0a    ...
                
 09BF 23        L0abf:	inx	h		;; 0abf: 23          #
 09C0 220000    	shld	L304b		;; 0ac0: 22 4b 30    "K0
 09C3 2A0000    	lhld	memtop		;; 0ac3: 2a 4d 30    *M0
 09C6 220000    	shld	L2eb4		;; 0ac6: 22 b4 2e    "..
 09C9 00        	nop			;; 0ac9: 00          .
 09CA 3A0000    	lda	L305c		;; 0aca: 3a 5c 30    :\0
 09CD FE06      	cpi	006h		;; 0acd: fe 06       ..
 09CF CADD09    	jz	L0add		;; 0acf: ca dd 0a    ...
 09D2 4E        	mov	c,m		;; 0ad2: 4e          N
 09D3 0600      	mvi	b,000h		;; 0ad3: 06 00       ..
 09D5 5D        	mov	e,l		;; 0ad5: 5d          ]
 09D6 54        	mov	d,h		;; 0ad6: 54          T
 09D7 09        	dad	b		;; 0ad7: 09          .
 09D8 EB        	xchg			;; 0ad8: eb          .
 09D9 73        	mov	m,e		;; 0ad9: 73          s
 09DA 23        	inx	h		;; 0ada: 23          #
 09DB 72        	mov	m,d		;; 0adb: 72          r
 09DC 2B        	dcx	h		;; 0adc: 2b          +
 09DD E5        L0add:	push	h		;; 0add: e5          .
 09DE 2A0000    	lhld	cursym		;; 0ade: 2a 56 30    *V0
 09E1 EB        	xchg			;; 0ae1: eb          .
 09E2 2AC510    	lhld	L11c5		;; 0ae2: 2a c5 11    *..
 09E5 7B        	mov	a,e		;; 0ae5: 7b          {
 09E6 95        	sub	l		;; 0ae6: 95          .
 09E7 5F        	mov	e,a		;; 0ae7: 5f          _
 09E8 7A        	mov	a,d		;; 0ae8: 7a          z
 09E9 9C        	sbb	h		;; 0ae9: 9c          .
 09EA 57        	mov	d,a		;; 0aea: 57          W
 09EB E1        	pop	h		;; 0aeb: e1          .
 09EC 19        	dad	d		;; 0aec: 19          .
 09ED 220000    	shld	L2ed4		;; 0aed: 22 d4 2e    "..
 09F0 3A0000    	lda	L305c		;; 0af0: 3a 5c 30    :\0
 09F3 320000    	sta	L2ea4		;; 0af3: 32 a4 2e    2..
 09F6 C35204    	jmp	L0552		;; 0af6: c3 52 05    .R.
                
 09F9 C3060B    pASEG:	jmp	L0c06		;; 0af9: c3 06 0c    ...
                
 09FC C3060B    pCSEG:	jmp	L0c06		;; 0afc: c3 06 0c    ...
                
 09FF C3060B    pDSEG:	jmp	L0c06		;; 0aff: c3 06 0c    ...
                
 0A02 C3060B    pNAME:	jmp	L0c06		;; 0b02: c3 06 0c    ...
                
 0A05 CDF40D    pPAGE:	call	L0ef4		;; 0b05: cd f4 0e    ...
 0A08 CD0000    	call	L1606		;; 0b08: cd 06 16    ...
 0A0B CD0F0B    	call	L0c0f		;; 0b0b: cd 0f 0c    ...
 0A0E CA250A    	jz	L0b25		;; 0b0e: ca 25 0b    .%.
 0A11 CD0000    	call	L1203		;; 0b11: cd 03 12    ...
 0A14 2A0000    	lhld	L3049		;; 0b14: 2a 49 30    *I0
 0A17 3A0000    	lda	curerr		;; 0b17: 3a 8c 2f    :./
 0A1A FE20      	cpi	' '		;; 0b1a: fe 20       . 
 0A1C C2D50C    	jnz	L0dd5		;; 0b1c: c2 d5 0d    ...
 0A1F CD0000    	call	L25aa		;; 0b1f: cd aa 25    ..%
 0A22 C3D50C    	jmp	L0dd5		;; 0b22: c3 d5 0d    ...
                
 0A25 CDAC02    L0b25:	call	L03ac		;; 0b25: cd ac 03    ...
 0A28 3A0000    	lda	pass		;; 0b28: 3a 4f 30    :O0
 0A2B B7        	ora	a		;; 0b2b: b7          .
 0A2C C40000    	cnz	L25ad		;; 0b2c: c4 ad 25    ..%
 0A2F C3D50C    	jmp	L0dd5		;; 0b2f: c3 d5 0d    ...
                
 0A32 C32004    pEXITM:	jmp	pENDM		;; 0b32: c3 20 05    . .
                
 0A35 C3060B    pEXTRN:	jmp	L0c06		;; 0b35: c3 06 0c    ...
                
 0A38 3A0000    pLOCAL:	lda	L2ea3		;; 0b38: 3a a3 2e    :..
 0A3B B7        	ora	a		;; 0b3b: b7          .
 0A3C CAA20A    	jz	L0ba2		;; 0b3c: ca a2 0b    ...
 0A3F CD0000    L0b3f:	call	L1606		;; 0b3f: cd 06 16    ...
 0A42 3A0000    	lda	L3005		;; 0b42: 3a 05 30    :.0
 0A45 FE01      	cpi	001h		;; 0b45: fe 01       ..
 0A47 C2A20A    	jnz	L0ba2		;; 0b47: c2 a2 0b    ...
 0A4A 2A0000    	lhld	L304b		;; 0b4a: 2a 4b 30    *K0
 0A4D E5        	push	h		;; 0b4d: e5          .
 0A4E 2B        	dcx	h		;; 0b4e: 2b          +
 0A4F 220000    	shld	L3058		;; 0b4f: 22 58 30    "X0
 0A52 CD0000    	call	L1c21		;; 0b52: cd 21 1c    ...
 0A55 AF        	xra	a		;; 0b55: af          .
 0A56 32DB10    	sta	L11db		;; 0b56: 32 db 11    2..
 0A59 3C        	inr	a		;; 0b59: 3c          <
 0A5A 320000    	sta	L3008		;; 0b5a: 32 08 30    2.0
 0A5D 2ADE10    	lhld	L11de		;; 0b5d: 2a de 11    *..
 0A60 23        	inx	h		;; 0b60: 23          #
 0A61 22DE10    	shld	L11de		;; 0b61: 22 de 11    "..
 0A64 22DC10    	shld	L11dc		;; 0b64: 22 dc 11    "..
 0A67 CD0E0C    	call	L0d0e		;; 0b67: cd 0e 0d    ...
 0A6A 3A0000    	lda	L300a		;; 0b6a: 3a 0a 30    :.0
 0A6D FE30      	cpi	'0'		;; 0b6d: fe 30       .0
 0A6F C4A810    	cnz	Oerror		;; 0b6f: c4 a8 11    ...
 0A72 213F3F    	lxi	h,'??'		;; 0b72: 21 3f 3f    .??
 0A75 220000    	shld	L3009		;; 0b75: 22 09 30    ".0
 0A78 CD0000    	call	L1c39		;; 0b78: cd 39 1c    .9.
 0A7B E1        	pop	h		;; 0b7b: e1          .
 0A7C 220000    	shld	L304b		;; 0b7c: 22 4b 30    "K0
 0A7F 2B        	dcx	h		;; 0b7f: 2b          +
 0A80 220000    	shld	L3058		;; 0b80: 22 58 30    "X0
 0A83 CD0000    	call	L1c24		;; 0b83: cd 24 1c    .$.
 0A86 CD0000    	call	L1c3c		;; 0b86: cd 3c 1c    .<.
 0A89 CD0000    	call	L1606		;; 0b89: cd 06 16    ...
 0A8C CD0F0B    	call	L0c0f		;; 0b8c: cd 0f 0c    ...
 0A8F CAD50C    	jz	L0dd5		;; 0b8f: ca d5 0d    ...
 0A92 3A0000    	lda	L3005		;; 0b92: 3a 05 30    :.0
 0A95 FE04      	cpi	004h		;; 0b95: fe 04       ..
 0A97 C2A20A    	jnz	L0ba2		;; 0b97: c2 a2 0b    ...
 0A9A 3A0000    	lda	L3009		;; 0b9a: 3a 09 30    :.0
 0A9D FE2C      	cpi	','		;; 0b9d: fe 2c       .,
 0A9F CA3F0A    	jz	L0b3f		;; 0b9f: ca 3f 0b    .?.
 0AA2 CDB410    L0ba2:	call	Serror		;; 0ba2: cd b4 11    ...
 0AA5 C3D50C    	jmp	L0dd5		;; 0ba5: c3 d5 0d    ...
                
 0AA8 C3060B    pNPAGE:	jmp	L0c06		;; 0ba8: c3 06 0c    ...
                
 0AAB CDF40D    pMACLI:	call	L0ef4		;; 0bab: cd f4 0e    ...
 0AAE 2AD610    	lhld	L11d6		;; 0bae: 2a d6 11    *..
 0AB1 7D        	mov	a,l		;; 0bb1: 7d          }
 0AB2 B4        	ora	h		;; 0bb2: b4          .
 0AB3 C2FA0A    	jnz	L0bfa		;; 0bb3: c2 fa 0b    ...
 0AB6 3A0000    	lda	L305d		;; 0bb6: 3a 5d 30    :]0
 0AB9 B7        	ora	a		;; 0bb9: b7          .
 0ABA C2FA0A    	jnz	L0bfa		;; 0bba: c2 fa 0b    ...
 0ABD CD0000    	call	L1606		;; 0bbd: cd 06 16    ...
 0AC0 3A0000    	lda	pass		;; 0bc0: 3a 4f 30    :O0
 0AC3 B7        	ora	a		;; 0bc3: b7          .
 0AC4 C2090B    	jnz	L0c09		;; 0bc4: c2 09 0c    ...
 0AC7 3A0000    	lda	L3005		;; 0bc7: 3a 05 30    :.0
 0ACA FE01      	cpi	001h		;; 0bca: fe 01       ..
 0ACC C2FA0A    	jnz	L0bfa		;; 0bcc: c2 fa 0b    ...
 0ACF CD0000    	call	libfie		;; 0bcf: cd a4 25    ..%
 0AD2 3A0000    	lda	Lflag		;; 0bd2: 3a 65 30    :e0
 0AD5 B7        	ora	a		;; 0bd5: b7          .
 0AD6 C40000    	cnz	L25ad		;; 0bd6: c4 ad 25    ..%
 0AD9 CD0000    L0bd9:	call	L1606		;; 0bd9: cd 06 16    ...
 0ADC 3A0000    	lda	L3005		;; 0bdc: 3a 05 30    :.0
 0ADF FE04      	cpi	004h		;; 0bdf: fe 04       ..
 0AE1 C2D90A    	jnz	L0bd9		;; 0be1: c2 d9 0b    ...
 0AE4 3A0000    	lda	L3009		;; 0be4: 3a 09 30    :.0
 0AE7 FE0D      	cpi	cr		;; 0be7: fe 0d       ..
 0AE9 CAF10A    	jz	L0bf1		;; 0be9: ca f1 0b    ...
 0AEC FE1A      	cpi	eof		;; 0bec: fe 1a       ..
 0AEE C2D90A    	jnz	L0bd9		;; 0bee: c2 d9 0b    ...
 0AF1 CDAC02    L0bf1:	call	L03ac		;; 0bf1: cd ac 03    ...
 0AF4 CD0000    	call	L25a7		;; 0bf4: cd a7 25    ..%
 0AF7 C37600    	jmp	L0176		;; 0bf7: c3 76 01    .v.
                
 0AFA CDB410    L0bfa:	call	Serror		;; 0bfa: cd b4 11    ...
 0AFD C3D50C    	jmp	L0dd5		;; 0bfd: c3 d5 0d    ...
                
 0B00 C3060B    pPUBLI:	jmp	L0c06		;; 0c00: c3 06 0c    ...
                
 0B03 C3060B    pSTKLN:	jmp	L0c06		;; 0c03: c3 06 0c    ...
                
 0B06 CDBA10    L0c06:	call	Nerror		;; 0c06: cd ba 11    ...
                	;
 0B09 CD0000    L0c09:	call	L1606		;; 0c09: cd 06 16    ...
 0B0C C3D50C    	jmp	L0dd5		;; 0c0c: c3 d5 0d    ...
                
 0B0F 3A0000    L0c0f:	lda	L3005		;; 0c0f: 3a 05 30    :.0
 0B12 FE04      	cpi	004h		;; 0c12: fe 04       ..
 0B14 C0        	rnz			;; 0c14: c0          .
 0B15 3A0000    	lda	L3009		;; 0c15: 3a 09 30    :.0
 0B18 FE0D      	cpi	cr		;; 0c18: fe 0d       ..
 0B1A C8        	rz			;; 0c1a: c8          .
 0B1B FE21      	cpi	'!'		;; 0c1b: fe 21       ..
 0B1D C8        	rz			;; 0c1d: c8          .
 0B1E FE3B      	cpi	';'		;; 0c1e: fe 3b       .;
 0B20 C9        	ret			;; 0c20: c9          .
                
 0B21 D61C      L0c21:	sui	01ch		;; 0c21: d6 1c       ..
 0B23 FE2A      	cpi	02ah	;***BUG***	;; 0c23: fe 2a       .*
 0B25 D2200D    	jnc	L0e20		;; 0c25: d2 20 0e    . .
                	; 1ch-2ah - instructions
 0B28 5F        	mov	e,a		;; 0c28: 5f          _
 0B29 1600      	mvi	d,000h		;; 0c29: 16 00       ..
 0B2B 21350B    	lxi	h,L0c35		;; 0c2b: 21 35 0c    .5.
 0B2E 19        	dad	d		;; 0c2e: 19          .
 0B2F 19        	dad	d		;; 0c2f: 19          .
 0B30 5E        	mov	e,m		;; 0c30: 5e          ^
 0B31 23        	inx	h		;; 0c31: 23          #
 0B32 66        	mov	h,m		;; 0c32: 66          f
 0B33 6B        	mov	l,e		;; 0c33: 6b          k
 0B34 E9        	pchl			;; 0c34: e9          .
                
 0B35 530B      L0c35:	dw	opnone	; 1ch - no operand
 0B37 5C0B      	dw	opX1W	; 1dh - LXI
 0B39 680B      	dw	opX1	; 1eh - DAD
 0B3B 6E0B      	dw	opX2	; 1fh - PUSH/POP
 0B3D 820B      	dw	opW1	; 20h - JMP/CALL
 0B3F 8B0B      	dw	opRR	; 21h - MOV
 0B41 9A0B      	dw	opRB	; 22h - MVI
 0B43 AA0B      	dw	opB1	; 23h - arith/logic imm
 0B45 B30B      	dw	opX3	; 24h - LDAX/STAX
 0B47 C20B      	dw	opW2	; 25h - LDA/STA/LHLD/SHLD
 0B49 CB0B      	dw	opR1	; 26h - arith/logic reg
 0B4B D20B      	dw	opR2	; 27h - INR/DCR
 0B4D D90B      	dw	opX4	; 28h - INX/DCX
 0B4F E80B      	dw	opN	; 29h - RST
 0B51 EF0B      	dw	opB2	; 2ah - IN/OUT
                
                ; opcode with no operands
 0B53 CD320E    opnone:	call	asmbyt		;; 0c53: cd 32 0f    .2.
 0B56 CD0000    	call	L1606		;; 0c56: cd 06 16    ...
 0B59 C3FB0B    	jmp	L0cfb		;; 0c59: c3 fb 0c    ...
                
                ; opcode with regpair set 1,word
 0B5C CDA00C    opX1W:	call	L0da0		;; 0c5c: cd a0 0d    ...
 0B5F CDBB0C    	call	L0dbb		;; 0c5f: cd bb 0d    ...
 0B62 CDB50C    	call	L0db5		;; 0c62: cd b5 0d    ...
 0B65 C3FB0B    	jmp	L0cfb		;; 0c65: c3 fb 0c    ...
                
                ; opcode with regpair set 1 (B,D,H,SP)
 0B68 CDA00C    opX1:	call	L0da0		;; 0c68: cd a0 0d    ...
 0B6B C3FB0B    	jmp	L0cfb		;; 0c6b: c3 fb 0c    ...
                
                ; opcode with regpair set 2 (B,D,H,PSW)
 0B6E CD960C    opX2:	call	L0d96		;; 0c6e: cd 96 0d    ...
 0B71 FE38      	cpi	038h		;; 0c71: fe 38       .8
 0B73 CA7B0B    	jz	L0c7b		;; 0c73: ca 7b 0c    .{.
 0B76 E608      	ani	008h		;; 0c76: e6 08       ..
 0B78 C48210    	cnz	Rerror		;; 0c78: c4 82 11    ...
 0B7B 79        L0c7b:	mov	a,c		;; 0c7b: 79          y
 0B7C E630      	ani	030h		;; 0c7c: e6 30       .0
 0B7E B0        	ora	b		;; 0c7e: b0          .
 0B7F C3F80B    	jmp	L0cf8		;; 0c7f: c3 f8 0c    ...
                
                ; opcode with word - exec target, jump/call
 0B82 CD320E    opW1:	call	asmbyt		;; 0c82: cd 32 0f    .2.
 0B85 CDB50C    	call	L0db5		;; 0c85: cd b5 0d    ...
 0B88 C3FB0B    	jmp	L0cfb		;; 0c88: c3 fb 0c    ...
                
                ; opcode with two single-reg operands (reg,reg) (00tttsss)
 0B8B CD960C    opRR:	call	L0d96		;; 0c8b: cd 96 0d    ...
 0B8E B0        	ora	b		;; 0c8e: b0          .
 0B8F 47        	mov	b,a		;; 0c8f: 47          G
 0B90 CDBB0C    	call	L0dbb		;; 0c90: cd bb 0d    ...
 0B93 CD8B0C    	call	L0d8b		;; 0c93: cd 8b 0d    ...
 0B96 B0        	ora	b		;; 0c96: b0          .
 0B97 C3F80B    	jmp	L0cf8		;; 0c97: c3 f8 0c    ...
                
                ; opcode with reg,byte operands, move imm (00rrr000)
 0B9A CD960C    opRB:	call	L0d96		;; 0c9a: cd 96 0d    ...
 0B9D B0        	ora	b		;; 0c9d: b0          .
 0B9E CD310E    	call	L0f31		;; 0c9e: cd 31 0f    .1.
 0BA1 CDBB0C    	call	L0dbb		;; 0ca1: cd bb 0d    ...
 0BA4 CDAF0C    	call	L0daf		;; 0ca4: cd af 0d    ...
 0BA7 C3FB0B    	jmp	L0cfb		;; 0ca7: c3 fb 0c    ...
                
                ; opcode with byte (imm) operand
 0BAA CD320E    opB1:	call	asmbyt		;; 0caa: cd 32 0f    .2.
 0BAD CDAF0C    	call	L0daf		;; 0cad: cd af 0d    ...
 0BB0 C3FB0B    	jmp	L0cfb		;; 0cb0: c3 fb 0c    ...
                
                ; opcode with regpair set 3 (B,D) (000x0000)
 0BB3 CD960C    opX3:	call	L0d96		;; 0cb3: cd 96 0d    ...
 0BB6 E628      	ani	028h		;; 0cb6: e6 28       .(
 0BB8 C48210    	cnz	Rerror		;; 0cb8: c4 82 11    ...
 0BBB 79        	mov	a,c		;; 0cbb: 79          y
 0BBC E610      	ani	010h		;; 0cbc: e6 10       ..
 0BBE B0        	ora	b		;; 0cbe: b0          .
 0BBF C3F80B    	jmp	L0cf8		;; 0cbf: c3 f8 0c    ...
                
                ; opcode with word (data target)
 0BC2 CD320E    opW2:	call	asmbyt		;; 0cc2: cd 32 0f    .2.
 0BC5 CDB50C    	call	L0db5		;; 0cc5: cd b5 0d    ...
 0BC8 C3FB0B    	jmp	L0cfb		;; 0cc8: c3 fb 0c    ...
                
                ; opcode with reg, arith/logic (00000rrr)
 0BCB CD8B0C    opR1:	call	L0d8b		;; 0ccb: cd 8b 0d    ...
 0BCE B0        	ora	b		;; 0cce: b0          .
 0BCF C3F80B    	jmp	L0cf8		;; 0ccf: c3 f8 0c    ...
                
                ; opcode with reg, increment/decrement (00rrr000)
 0BD2 CD960C    opR2:	call	L0d96		;; 0cd2: cd 96 0d    ...
 0BD5 B0        	ora	b		;; 0cd5: b0          .
 0BD6 C3F80B    	jmp	L0cf8		;; 0cd6: c3 f8 0c    ...
                
                ; opcode with reg-pair set 4 (B,D,H,SP), increment/decrement (00xx0000)
 0BD9 CD960C    opX4:	call	L0d96		;; 0cd9: cd 96 0d    ...
 0BDC E608      	ani	008h		;; 0cdc: e6 08       ..
 0BDE C48210    	cnz	Rerror		;; 0cde: c4 82 11    ...
 0BE1 79        	mov	a,c		;; 0ce1: 79          y
 0BE2 E630      	ani	030h		;; 0ce2: e6 30       .0
 0BE4 B0        	ora	b		;; 0ce4: b0          .
 0BE5 C3F80B    	jmp	L0cf8		;; 0ce5: c3 f8 0c    ...
                
                ; opcode with number (0-7), restart instructions
                ; NOTE: same code as opR2
 0BE8 CD960C    opN:	call	L0d96		;; 0ce8: cd 96 0d    ...
 0BEB B0        	ora	b		;; 0ceb: b0          .
 0BEC C3F80B    	jmp	L0cf8		;; 0cec: c3 f8 0c    ...
                
                ; opcode with byte, input/output port
                ; NOTE: same code as opB1
 0BEF CD320E    opB2:	call	asmbyt		;; 0cef: cd 32 0f    .2.
 0BF2 CDAF0C    	call	L0daf		;; 0cf2: cd af 0d    ...
 0BF5 C3FB0B    	jmp	L0cfb		;; 0cf5: c3 fb 0c    ...
                
 0BF8 CD310E    L0cf8:	call	L0f31		;; 0cf8: cd 31 0f    .1.
 0BFB CDF40D    L0cfb:	call	L0ef4		;; 0cfb: cd f4 0e    ...
 0BFE CDE30D    	call	L0ee3		;; 0cfe: cd e3 0e    ...
 0C01 C3D50C    	jmp	L0dd5		;; 0d01: c3 d5 0d    ...
                
 0C04 1027      L0d04:	dw	10000
 0C06 E803      	dw	1000
 0C08 6400      	dw	100
 0C0A 0A00      	dw	10
 0C0C 0100      	dw	1
                
                ; convert (L11dc) to decimal (ASCII) in buffer L3008.
                ; suppress leading zeros.
 0C0E 0605      L0d0e:	mvi	b,005h		;; 0d0e: 06 05       ..
 0C10 21040C    	lxi	h,L0d04		;; 0d10: 21 04 0d    ...
 0C13 5E        L0d13:	mov	e,m		;; 0d13: 5e          ^
 0C14 23        	inx	h		;; 0d14: 23          #
 0C15 56        	mov	d,m		;; 0d15: 56          V
 0C16 23        	inx	h		;; 0d16: 23          #
 0C17 E5        	push	h		;; 0d17: e5          .
 0C18 2ADC10    	lhld	L11dc		;; 0d18: 2a dc 11    *..
 0C1B 0E30      	mvi	c,'0'		;; 0d1b: 0e 30       .0
 0C1D 7D        L0d1d:	mov	a,l		;; 0d1d: 7d          }
 0C1E 93        	sub	e		;; 0d1e: 93          .
 0C1F 6F        	mov	l,a		;; 0d1f: 6f          o
 0C20 7C        	mov	a,h		;; 0d20: 7c          |
 0C21 9A        	sbb	d		;; 0d21: 9a          .
 0C22 67        	mov	h,a		;; 0d22: 67          g
 0C23 DA2A0C    	jc	L0d2a		;; 0d23: da 2a 0d    .*.
 0C26 0C        	inr	c		;; 0d26: 0c          .
 0C27 C31D0C    	jmp	L0d1d		;; 0d27: c3 1d 0d    ...
                
 0C2A 19        L0d2a:	dad	d		;; 0d2a: 19          .
 0C2B 22DC10    	shld	L11dc		;; 0d2b: 22 dc 11    "..
 0C2E 3ADB10    	lda	L11db		;; 0d2e: 3a db 11    :..
 0C31 B7        	ora	a		;; 0d31: b7          .
 0C32 CA440C    	jz	L0d44		;; 0d32: ca 44 0d    .D.
 0C35 78        	mov	a,b		;; 0d35: 78          x
 0C36 3D        	dcr	a		;; 0d36: 3d          =
 0C37 CA440C    	jz	L0d44		;; 0d37: ca 44 0d    .D.
 0C3A 79        	mov	a,c		;; 0d3a: 79          y
 0C3B FE30      	cpi	'0'		;; 0d3b: fe 30       .0
 0C3D CA500C    	jz	L0d50		;; 0d3d: ca 50 0d    .P.
 0C40 AF        	xra	a		;; 0d40: af          .
 0C41 32DB10    	sta	L11db		;; 0d41: 32 db 11    2..
 0C44 210000    L0d44:	lxi	h,L3008		;; 0d44: 21 08 30    ..0
 0C47 5E        	mov	e,m		;; 0d47: 5e          ^
 0C48 34        	inr	m		;; 0d48: 34          4
 0C49 1600      	mvi	d,0		;; 0d49: 16 00       ..
 0C4B 210000    	lxi	h,L3009		;; 0d4b: 21 09 30    ..0
 0C4E 19        	dad	d		;; 0d4e: 19          .
 0C4F 71        	mov	m,c		;; 0d4f: 71          q
 0C50 E1        L0d50:	pop	h		;; 0d50: e1          .
 0C51 05        	dcr	b		;; 0d51: 05          .
 0C52 C2130C    	jnz	L0d13		;; 0d52: c2 13 0d    ...
 0C55 C9        	ret			;; 0d55: c9          .
                
 0C56 3A0000    L0d56:	lda	L3005		;; 0d56: 3a 05 30    :.0
 0C59 FE04      	cpi	004h		;; 0d59: fe 04       ..
 0C5B C49610    	cnz	Derror		;; 0d5b: c4 96 11    ...
 0C5E 3A0000    	lda	L3009		;; 0d5e: 3a 09 30    :.0
 0C61 FE2C      	cpi	','		;; 0d61: fe 2c       .,
 0C63 C8        	rz			;; 0d63: c8          .
 0C64 FE3B      	cpi	';'		;; 0d64: fe 3b       .;
 0C66 C8        	rz			;; 0d66: c8          .
 0C67 FE0D      	cpi	cr		;; 0d67: fe 0d       ..
 0C69 C49610    	cnz	Derror		;; 0d69: c4 96 11    ...
 0C6C C9        	ret			;; 0d6c: c9          .
                
 0C6D C5        L0d6d:	push	b		;; 0d6d: c5          .
 0C6E CD0000    	call	L1606		;; 0d6e: cd 06 16    ...
 0C71 CD0000    	call	L1203		;; 0d71: cd 03 12    ...
 0C74 2A0000    	lhld	L3049		;; 0d74: 2a 49 30    *I0
 0C77 C1        	pop	b		;; 0d77: c1          .
 0C78 C9        	ret			;; 0d78: c9          .
                
 0C79 CD6D0C    L0d79:	call	L0d6d		;; 0d79: cd 6d 0d    .m.
 0C7C 7C        L0d7c:	mov	a,h		;; 0d7c: 7c          |
 0C7D B7        	ora	a		;; 0d7d: b7          .
 0C7E 7D        	mov	a,l		;; 0d7e: 7d          }
 0C7F C8        	rz			;; 0d7f: c8          .
 0C80 24        	inr	h		;; 0d80: 24          $
 0C81 C2860C    	jnz	L0d86		;; 0d81: c2 86 0d    ...
 0C84 B7        	ora	a		;; 0d84: b7          .
 0C85 F8        	rm			;; 0d85: f8          .
 0C86 CD8C10    L0d86:	call	Verror		;; 0d86: cd 8c 11    ...
 0C89 6F        	mov	l,a		;; 0d89: 6f          o
 0C8A C9        	ret			;; 0d8a: c9          .
                
 0C8B CD790C    L0d8b:	call	L0d79		;; 0d8b: cd 79 0d    .y.
 0C8E FE08      	cpi	008h		;; 0d8e: fe 08       ..
 0C90 D48C10    	cnc	Verror		;; 0d90: d4 8c 11    ...
 0C93 E607      	ani	007h		;; 0d93: e6 07       ..
 0C95 C9        	ret			;; 0d95: c9          .
                
 0C96 CD8B0C    L0d96:	call	L0d8b		;; 0d96: cd 8b 0d    ...
 0C99 17        	ral			;; 0d99: 17          .
 0C9A 17        	ral			;; 0d9a: 17          .
 0C9B 17        	ral			;; 0d9b: 17          .
 0C9C E638      	ani	038h		;; 0d9c: e6 38       .8
 0C9E 4F        	mov	c,a		;; 0d9e: 4f          O
 0C9F C9        	ret			;; 0d9f: c9          .
                
 0CA0 CD960C    L0da0:	call	L0d96		;; 0da0: cd 96 0d    ...
 0CA3 E608      	ani	008h		;; 0da3: e6 08       ..
 0CA5 C48210    	cnz	Rerror		;; 0da5: c4 82 11    ...
 0CA8 79        	mov	a,c		;; 0da8: 79          y
 0CA9 E630      	ani	030h		;; 0da9: e6 30       .0
 0CAB B0        	ora	b		;; 0dab: b0          .
 0CAC C3310E    	jmp	L0f31		;; 0dac: c3 31 0f    .1.
                
 0CAF CD790C    L0daf:	call	L0d79		;; 0daf: cd 79 0d    .y.
 0CB2 C3310E    	jmp	L0f31		;; 0db2: c3 31 0f    .1.
                
 0CB5 CD6D0C    L0db5:	call	L0d6d		;; 0db5: cd 6d 0d    .m.
 0CB8 C3580E    	jmp	asmadr		;; 0db8: c3 58 0f    .X.
                
 0CBB F5        L0dbb:	push	psw		;; 0dbb: f5          .
 0CBC C5        	push	b		;; 0dbc: c5          .
 0CBD 3A0000    	lda	L3005		;; 0dbd: 3a 05 30    :.0
 0CC0 FE04      	cpi	004h		;; 0dc0: fe 04       ..
 0CC2 C2CD0C    	jnz	L0dcd		;; 0dc2: c2 cd 0d    ...
 0CC5 3A0000    	lda	L3009		;; 0dc5: 3a 09 30    :.0
 0CC8 FE2C      	cpi	','		;; 0dc8: fe 2c       .,
 0CCA CAD20C    	jz	L0dd2		;; 0dca: ca d2 0d    ...
 0CCD 3E43      L0dcd:	mvi	a,'C'		;; 0dcd: 3e 43       >C
 0CCF CD0000    	call	setere		;; 0dcf: cd 98 25    ..%
 0CD2 C1        L0dd2:	pop	b		;; 0dd2: c1          .
 0CD3 F1        	pop	psw		;; 0dd3: f1          .
 0CD4 C9        	ret			;; 0dd4: c9          .
                
 0CD5 CDF40D    L0dd5:	call	L0ef4		;; 0dd5: cd f4 0e    ...
 0CD8 3A0000    	lda	L3005		;; 0dd8: 3a 05 30    :.0
 0CDB FE04      	cpi	004h		;; 0ddb: fe 04       ..
 0CDD C2200D    	jnz	L0e20		;; 0ddd: c2 20 0e    . .
 0CE0 3A0000    	lda	L3009		;; 0de0: 3a 09 30    :.0
 0CE3 FE0D      	cpi	cr		;; 0de3: fe 0d       ..
 0CE5 C2EE0C    	jnz	L0dee		;; 0de5: c2 ee 0d    ...
 0CE8 CD0000    	call	L1606		;; 0de8: cd 06 16    ...
 0CEB C37600    	jmp	L0176		;; 0deb: c3 76 01    .v.
                
 0CEE FE3B      L0dee:	cpi	';'		;; 0dee: fe 3b       .;
 0CF0 C2160D    	jnz	L0e16		;; 0df0: c2 16 0e    ...
 0CF3 CDF40D    	call	L0ef4		;; 0df3: cd f4 0e    ...
 0CF6 CD0000    L0df6:	call	L1606		;; 0df6: cd 06 16    ...
 0CF9 3A0000    	lda	L3005		;; 0df9: 3a 05 30    :.0
 0CFC FE04      	cpi	004h		;; 0dfc: fe 04       ..
 0CFE C2F60C    	jnz	L0df6		;; 0dfe: c2 f6 0d    ...
 0D01 3A0000    	lda	L3009		;; 0e01: 3a 09 30    :.0
 0D04 FE0A      	cpi	lf		;; 0e04: fe 0a       ..
 0D06 CA7600    	jz	L0176		;; 0e06: ca 76 01    .v.
 0D09 FE1A      	cpi	eof		;; 0e09: fe 1a       ..
 0D0B CA2D0D    	jz	L0e2d		;; 0e0b: ca 2d 0e    .-.
 0D0E FE21      	cpi	'!'		;; 0e0e: fe 21       ..
 0D10 CA7600    	jz	L0176		;; 0e10: ca 76 01    .v.
 0D13 C3F60C    	jmp	L0df6		;; 0e13: c3 f6 0d    ...
                
 0D16 FE21      L0e16:	cpi	'!'		;; 0e16: fe 21       ..
 0D18 CA7600    	jz	L0176		;; 0e18: ca 76 01    .v.
 0D1B FE1A      	cpi	eof		;; 0e1b: fe 1a       ..
 0D1D CA2D0D    	jz	L0e2d		;; 0e1d: ca 2d 0e    .-.
 0D20 CDB410    L0e20:	call	Serror		;; 0e20: cd b4 11    ...
 0D23 C3F60C    	jmp	L0df6		;; 0e23: c3 f6 0d    ...
                
 0D26 7B        subtra:	mov	a,e		;; 0e26: 7b          {
 0D27 95        	sub	l		;; 0e27: 95          .
 0D28 6F        	mov	l,a		;; 0e28: 6f          o
 0D29 7A        	mov	a,d		;; 0e29: 7a          z
 0D2A 9C        	sbb	h		;; 0e2a: 9c          .
 0D2B 67        	mov	h,a		;; 0e2b: 67          g
 0D2C C9        	ret			;; 0e2c: c9          .
                
 0D2D 3A0000    L0e2d:	lda	L2ea3		;; 0e2d: 3a a3 2e    :..
 0D30 B7        	ora	a		;; 0e30: b7          .
 0D31 CA370D    	jz	L0e37		;; 0e31: ca 37 0e    .7.
 0D34 CDAE10    L0e34:	call	Berror		;; 0e34: cd ae 11    ...
 0D37 AF        L0e37:	xra	a		;; 0e37: af          .
 0D38 320000    	sta	L305a		;; 0e38: 32 5a 30    2Z0
 0D3B 210000    	lxi	h,pass		;; 0e3b: 21 4f 30    .O0
 0D3E 7E        	mov	a,m		;; 0e3e: 7e          ~
 0D3F 34        	inr	m		;; 0e3f: 34          4
 0D40 B7        	ora	a		;; 0e40: b7          .
 0D41 C26C0D    	jnz	L0e6c		;; 0e41: c2 6c 0e    .l.
 0D44 21FFFF    	lxi	h,0ffffh	;; 0e44: 21 ff ff    ...
 0D47 22D810    	shld	L11d8		;; 0e47: 22 d8 11    "..
 0D4A 2AD610    L0e4a:	lhld	L11d6		;; 0e4a: 2a d6 11    *..
 0D4D 7C        	mov	a,h		;; 0e4d: 7c          |
 0D4E B5        	ora	l		;; 0e4e: b5          .
 0D4F CA3E00    	jz	L013e		;; 0e4f: ca 3e 01    .>.
 0D52 220000    	shld	cursym		;; 0e52: 22 56 30    "V0
 0D55 E5        	push	h		;; 0e55: e5          .
 0D56 CD0000    	call	L1c18		;; 0e56: cd 18 1c    ...
 0D59 E3        	xthl			;; 0e59: e3          .
 0D5A E5        	push	h		;; 0e5a: e5          .
 0D5B 2AD810    	lhld	L11d8		;; 0e5b: 2a d8 11    *..
 0D5E CD0000    	call	L1c15		;; 0e5e: cd 15 1c    ...
 0D61 E1        	pop	h		;; 0e61: e1          .
 0D62 22D810    	shld	L11d8		;; 0e62: 22 d8 11    "..
 0D65 E1        	pop	h		;; 0e65: e1          .
 0D66 22D610    	shld	L11d6		;; 0e66: 22 d6 11    "..
 0D69 C34A0D    	jmp	L0e4a		;; 0e69: c3 4a 0e    .J.
                
                ; finish-up assembly...
 0D6C CD0000    L0e6c:	call	L1606		;; 0e6c: cd 06 16    ...
 0D6F CD8A0E    	call	prnbeg		;; 0e6f: cd 8a 0f    ...
 0D72 210500    	lxi	h,prnbuf+5	;; 0e72: 21 91 2f    ../
 0D75 360D      	mvi	m,cr		;; 0e75: 36 0d       6.
 0D77 210100    	lxi	h,prnbuf+1	;; 0e77: 21 8d 2f    ../
 0D7A CD0000    	call	msgcre		;; 0e7a: cd 92 25    ..%
 0D7D 3A0000    	lda	Sflag		;; 0e7d: 3a 5e 30    :^0
 0D80 B7        	ora	a		;; 0e80: b7          .
 0D81 CA8F0D    	jz	L0e8f		;; 0e81: ca 8f 0e    ...
                	; generate symbol output/file
 0D84 3E01      	mvi	a,001h		;; 0e84: 3e 01       >.
 0D86 320000    	sta	L2ea4		;; 0e86: 32 a4 2e    2..
 0D89 CD0000    	call	L25a1		;; 0e89: cd a1 25    ..%
 0D8C CDB10E    	call	L0fb1		;; 0e8c: cd b1 0f    ...
 0D8F 2A0000    L0e8f:	lhld	L304b		;; 0e8f: 2a 4b 30    *K0
 0D92 EB        	xchg			;; 0e92: eb          .
 0D93 2A0000    	lhld	syheap		;; 0e93: 2a 54 30    *T0
 0D96 CD260D    	call	subtra		;; 0e96: cd 26 0e    .&.
 0D99 E5        	push	h		;; 0e99: e5          .
 0D9A 2A0000    	lhld	memtop		;; 0e9a: 2a 4d 30    *M0
 0D9D EB        	xchg			;; 0e9d: eb          .
 0D9E 2A0000    	lhld	syheap		;; 0e9e: 2a 54 30    *T0
 0DA1 CD260D    	call	subtra		;; 0ea1: cd 26 0e    .&.
 0DA4 5C        	mov	e,h		;; 0ea4: 5c          \
 0DA5 1600      	mvi	d,0		;; 0ea5: 16 00       ..
 0DA7 E1        	pop	h		;; 0ea7: e1          .
 0DA8 CD0000    	call	divide		;; 0ea8: cd 09 12    ...
 0DAB EB        	xchg			;; 0eab: eb          .
 0DAC CD8D0E    	call	prnadr		;; 0eac: cd 8d 0f    ...
 0DAF 210500    	lxi	h,prnbuf+5	;; 0eaf: 21 91 2f    ../
 0DB2 11C00D    	lxi	d,L0ec0		;; 0eb2: 11 c0 0e    ...
 0DB5 1A        L0eb5:	ldax	d		;; 0eb5: 1a          .
 0DB6 B7        	ora	a		;; 0eb6: b7          .
 0DB7 CACE0D    	jz	L0ece		;; 0eb7: ca ce 0e    ...
 0DBA 77        	mov	m,a		;; 0eba: 77          w
 0DBB 23        	inx	h		;; 0ebb: 23          #
 0DBC 13        	inx	d		;; 0ebc: 13          .
 0DBD C3B50D    	jmp	L0eb5		;; 0ebd: c3 b5 0e    ...
                
 0DC0 4820555345L0ec0:	db	'H USE FACTOR',0dh,0
                
 0DCE 210200    L0ece:	lxi	h,prnbuf+2	;; 0ece: 21 8e 2f    ../
 0DD1 CD0000    	call	msgcre		;; 0ed1: cd 92 25    ..%
 0DD4 2AC710    	lhld	L11c7		;; 0ed4: 2a c7 11    *..
 0DD7 220000    	shld	curadr		;; 0ed7: 22 50 30    "P0
 0DDA C30000    	jmp	hexfne		;; 0eda: c3 9e 25    ..%
                
 0DDD 7A        compr1:	mov	a,d		;; 0edd: 7a          z
 0DDE BC        	cmp	h		;; 0ede: bc          .
 0DDF C0        	rnz			;; 0edf: c0          .
 0DE0 7B        	mov	a,e		;; 0ee0: 7b          {
 0DE1 BD        	cmp	l		;; 0ee1: bd          .
 0DE2 C9        	ret			;; 0ee2: c9          .
                
 0DE3 2A0000    L0ee3:	lhld	curadr		;; 0ee3: 2a 50 30    *P0
 0DE6 220000    	shld	linadr		;; 0ee6: 22 52 30    "R0
 0DE9 C9        	ret			;; 0ee9: c9          .
                
 0DEA 2AC310    L0eea:	lhld	L11c3		;; 0eea: 2a c3 11    *..
 0DED 220000    	shld	cursym		;; 0eed: 22 56 30    "V0
 0DF0 CD0000    	call	L1c09		;; 0ef0: cd 09 1c    ...
 0DF3 C9        	ret			;; 0ef3: c9          .
                
 0DF4 CDEA0D    L0ef4:	call	L0eea		;; 0ef4: cd ea 0e    ...
 0DF7 C8        	rz			;; 0ef7: c8          .
 0DF8 210000    	lxi	h,0		;; 0ef8: 21 00 00    ...
 0DFB 22C310    	shld	L11c3		;; 0efb: 22 c3 11    "..
 0DFE 3A0000    	lda	pass		;; 0efe: 3a 4f 30    :O0
 0E01 B7        	ora	a		;; 0f01: b7          .
 0E02 C21B0E    	jnz	L0f1b		;; 0f02: c2 1b 0f    ...
 0E05 CD0000    	call	L1c12		;; 0f05: cd 12 1c    ...
 0E08 F5        	push	psw		;; 0f08: f5          .
 0E09 E607      	ani	007h		;; 0f09: e6 07       ..
 0E0B C4A210    	cnz	Lerror		;; 0f0b: c4 a2 11    ...
 0E0E F1        	pop	psw		;; 0f0e: f1          .
 0E0F F601      	ori	001h		;; 0f0f: f6 01       ..
 0E11 CD0000    	call	L1c0f		;; 0f11: cd 0f 1c    ...
 0E14 2A0000    	lhld	linadr		;; 0f14: 2a 52 30    *R0
 0E17 CD0000    	call	L1c15		;; 0f17: cd 15 1c    ...
 0E1A C9        	ret			;; 0f1a: c9          .
                
 0E1B CD0000    L0f1b:	call	L1c12		;; 0f1b: cd 12 1c    ...
 0E1E E607      	ani	007h		;; 0f1e: e6 07       ..
 0E20 CC9C10    	cz	Perror		;; 0f20: cc 9c 11    ...
 0E23 CD0000    	call	L1c18		;; 0f23: cd 18 1c    ...
 0E26 EB        	xchg			;; 0f26: eb          .
 0E27 2A0000    	lhld	linadr		;; 0f27: 2a 52 30    *R0
 0E2A CDDD0D    	call	compr1		;; 0f2a: cd dd 0e    ...
 0E2D C49C10    	cnz	Perror		;; 0f2d: c4 9c 11    ...
 0E30 C9        	ret			;; 0f30: c9          .
                
                ; assemble byte, in A, to output files (PRN, HEX
 0E31 47        L0f31:	mov	b,a		;; 0f31: 47          G
                ; assemble byte, in B, to output files (PRN, HEX)
 0E32 C5        asmbyt:	push	b		;; 0f32: c5          .
 0E33 3A0000    	lda	pass		;; 0f33: 3a 4f 30    :O0
 0E36 B7        	ora	a		;; 0f36: b7          .
 0E37 78        	mov	a,b		;; 0f37: 78          x
 0E38 C40000    	cnz	hexpte		;; 0f38: c4 9b 25    ..%
 0E3B 3A0100    	lda	prnbuf+1	;; 0f3b: 3a 8d 2f    :./
 0E3E FE20      	cpi	' '		;; 0f3e: fe 20       . 
 0E40 2A0000    	lhld	linadr		;; 0f40: 2a 52 30    *R0
 0E43 CC8D0E    	cz	prnadr		;; 0f43: cc 8d 0f    ...
 0E46 3AC910    	lda	prncol		;; 0f46: 3a c9 11    :..
 0E49 FE10      	cpi	16		;; 0f49: fe 10       ..
 0E4B C1        	pop	b		;; 0f4b: c1          .
 0E4C 78        	mov	a,b		;; 0f4c: 78          x
 0E4D DC7A0E    	cc	prnhex		;; 0f4d: dc 7a 0f    .z.
 0E50 2A0000    	lhld	curadr		;; 0f50: 2a 50 30    *P0
 0E53 23        	inx	h		;; 0f53: 23          #
 0E54 220000    	shld	curadr		;; 0f54: 22 50 30    "P0
 0E57 C9        	ret			;; 0f57: c9          .
                
                ; assemble address (HL) to output files (PRN, HEX)
 0E58 E5        asmadr:	push	h		;; 0f58: e5          .
 0E59 45        	mov	b,l		;; 0f59: 45          E
 0E5A CD320E    	call	asmbyt		;; 0f5a: cd 32 0f    .2.
 0E5D E1        	pop	h		;; 0f5d: e1          .
 0E5E 44        	mov	b,h		;; 0f5e: 44          D
 0E5F C3320E    	jmp	asmbyt		;; 0f5f: c3 32 0f    .2.
                
 0E62 C630      hexdig:	adi	'0'		;; 0f62: c6 30       .0
 0E64 FE3A      	cpi	'0'+10		;; 0f64: fe 3a       .:
 0E66 D8        	rc			;; 0f66: d8          .
 0E67 C607      	adi	'A'-'9'-1	;; 0f67: c6 07       ..
 0E69 C9        	ret			;; 0f69: c9          .
                
 0E6A CD620E    L0f6a:	call	hexdig		;; 0f6a: cd 62 0f    .b.
 0E6D 21C910    	lxi	h,prncol		;; 0f6d: 21 c9 11    ...
 0E70 5E        	mov	e,m		;; 0f70: 5e          ^
 0E71 1600      	mvi	d,0		;; 0f71: 16 00       ..
 0E73 34        	inr	m		;; 0f73: 34          4
 0E74 210000    	lxi	h,prnbuf		;; 0f74: 21 8c 2f    ../
 0E77 19        	dad	d		;; 0f77: 19          .
 0E78 77        	mov	m,a		;; 0f78: 77          w
 0E79 C9        	ret			;; 0f79: c9          .
                
 0E7A F5        prnhex:	push	psw		;; 0f7a: f5          .
 0E7B 1F        	rar			;; 0f7b: 1f          .
 0E7C 1F        	rar			;; 0f7c: 1f          .
 0E7D 1F        	rar			;; 0f7d: 1f          .
 0E7E 1F        	rar			;; 0f7e: 1f          .
 0E7F E60F      	ani	00fh		;; 0f7f: e6 0f       ..
 0E81 CD6A0E    	call	L0f6a		;; 0f81: cd 6a 0f    .j.
 0E84 F1        	pop	psw		;; 0f84: f1          .
 0E85 E60F      	ani	00fh		;; 0f85: e6 0f       ..
 0E87 C36A0E    	jmp	L0f6a		;; 0f87: c3 6a 0f    .j.
                
                ; put address (linadr) in PRN file buffer
 0E8A 2A0000    prnbeg:	lhld	linadr		;; 0f8a: 2a 52 30    *R0
                ; put address (HL) in PRN file buffer
 0E8D EB        prnadr:	xchg			;; 0f8d: eb          .
 0E8E 21C910    	lxi	h,prncol		;; 0f8e: 21 c9 11    ...
 0E91 E5        	push	h		;; 0f91: e5          .
 0E92 3601      	mvi	m,1		;; 0f92: 36 01       6.
 0E94 7A        	mov	a,d		;; 0f94: 7a          z
 0E95 D5        	push	d		;; 0f95: d5          .
 0E96 CD7A0E    	call	prnhex		;; 0f96: cd 7a 0f    .z.
 0E99 D1        	pop	d		;; 0f99: d1          .
 0E9A 7B        	mov	a,e		;; 0f9a: 7b          {
 0E9B CD7A0E    	call	prnhex		;; 0f9b: cd 7a 0f    .z.
 0E9E E1        	pop	h		;; 0f9e: e1          .
 0E9F 34        	inr	m		;; 0f9f: 34          4
 0EA0 C9        	ret			;; 0fa0: c9          .
                
 0EA1 D641      hashch:	sui	'A'		;; 0fa1: d6 41       .A
 0EA3 FE1A      	cpi	'Z'-'A'+1	;; 0fa3: fe 1a       ..
 0EA5 5F        	mov	e,a		;; 0fa5: 5f          _
 0EA6 D8        	rc			;; 0fa6: d8          .
 0EA7 C641      	adi	'A'		;; 0fa7: c6 41       .A
 0EA9 FE3F      	cpi	'?'		;; 0fa9: fe 3f       .?
 0EAB 1E1A      	mvi	e,'['-'A'	;; 0fab: 1e 1a       ..
 0EAD C8        	rz			;; 0fad: c8          .
 0EAE 1E1B      	mvi	e,'\'-'A'	;; 0fae: 1e 1b       ..
 0EB0 C9        	ret			;; 0fb0: c9          .
                
 0EB1 AF        L0fb1:	xra	a		;; 0fb1: af          .
 0EB2 320000    	sta	L2ea5		;; 0fb2: 32 a5 2e    2..
 0EB5 32C910    	sta	prncol		;; 0fb5: 32 c9 11    2..
 0EB8 2A0000    	lhld	syheap		;; 0fb8: 2a 54 30    *T0
 0EBB 220000    	shld	cursym		;; 0fbb: 22 56 30    "V0
                	; init symtab hash to 0...
 0EBE 210000    	lxi	h,symtab	;; 0fbe: 21 ac 2e    ...
 0EC1 0E38      	mvi	c,56		;; 0fc1: 0e 38       .8
 0EC3 AF        	xra	a		;; 0fc3: af          .
 0EC4 77        L0fc4:	mov	m,a		;; 0fc4: 77          w
 0EC5 23        	inx	h		;; 0fc5: 23          #
 0EC6 0D        	dcr	c		;; 0fc6: 0d          .
 0EC7 C2C40E    	jnz	L0fc4		;; 0fc7: c2 c4 0f    ...
                	;
 0ECA 2A0000    L0fca:	lhld	cursym		;; 0fca: 2a 56 30    *V0
 0ECD EB        	xchg			;; 0fcd: eb          .
 0ECE 2A0000    	lhld	L304b		;; 0fce: 2a 4b 30    *K0
 0ED1 7B        	mov	a,e		;; 0fd1: 7b          {
 0ED2 95        	sub	l		;; 0fd2: 95          .
 0ED3 7A        	mov	a,d		;; 0fd3: 7a          z
 0ED4 9C        	sbb	h		;; 0fd4: 9c          .
 0ED5 D2A40F    	jnc	L10a4		;; 0fd5: d2 a4 10    ...
 0ED8 2A0000    	lhld	L3062		;; 0fd8: 2a 62 30    *b0
 0EDB CDDD0D    	call	compr1		;; 0fdb: cd dd 0e    ...
 0EDE 2B        	dcx	h		;; 0fde: 2b          +
 0EDF 220000    	shld	L3058		;; 0fdf: 22 58 30    "X0
 0EE2 CAFD0E    	jz	L0ffd		;; 0fe2: ca fd 0f    ...
 0EE5 CD0000    	call	L1c12		;; 0fe5: cd 12 1c    ...
 0EE8 FE06      	cpi	006h		;; 0fe8: fe 06       ..
 0EEA C20B0F    	jnz	L100b		;; 0fea: c2 0b 10    ...
 0EED CD0000    	call	L1c1e		;; 0fed: cd 1e 1c    ...
 0EF0 B7        L0ff0:	ora	a		;; 0ff0: b7          .
 0EF1 CAFD0E    	jz	L0ffd		;; 0ff1: ca fd 0f    ...
 0EF4 3D        	dcr	a		;; 0ff4: 3d          =
 0EF5 F5        	push	psw		;; 0ff5: f5          .
 0EF6 CD0000    	call	L1c24		;; 0ff6: cd 24 1c    .$.
 0EF9 F1        	pop	psw		;; 0ff9: f1          .
 0EFA C3F00E    	jmp	L0ff0		;; 0ffa: c3 f0 0f    ...
                
 0EFD CD0000    L0ffd:	call	L1c2a		;; 0ffd: cd 2a 1c    .*.
 0F00 B7        	ora	a		;; 1000: b7          .
 0F01 C2FD0E    	jnz	L0ffd		;; 1001: c2 fd 0f    ...
 0F04 2A0000    	lhld	L3058		;; 1004: 2a 58 30    *X0
 0F07 23        	inx	h		;; 1007: 23          #
 0F08 C39E0F    	jmp	L109e		;; 1008: c3 9e 10    ...
                
 0F0B 210000    L100b:	lxi	h,L2ea4		;; 100b: 21 a4 2e    ...
 0F0E BE        	cmp	m		;; 100e: be          .
 0F0F C2900F    	jnz	L1090		;; 100f: c2 90 10    ...
 0F12 2A0000    	lhld	cursym		;; 1012: 2a 56 30    *V0
 0F15 220000    	shld	L2eaa		;; 1015: 22 aa 2e    "..
 0F18 23        	inx	h		;; 1018: 23          #
 0F19 220000    	shld	L3058		;; 1019: 22 58 30    "X0
 0F1C CD0000    	call	L1c24		;; 101c: cd 24 1c    .$.
 0F1F 3A0000    	lda	Qflag		;; 101f: 3a 64 30    :d0
 0F22 B7        	ora	a		;; 1022: b7          .
 0F23 C23C0F    	jnz	L103c		;; 1023: c2 3c 10    .<.
 0F26 3A0000    	lda	L3008		;; 1026: 3a 08 30    :.0
 0F29 FE02      	cpi	002h		;; 1029: fe 02       ..
 0F2B DA3C0F    	jc	L103c		;; 102b: da 3c 10    .<.
 0F2E 210000    	lxi	h,L3009		;; 102e: 21 09 30    ..0
 0F31 7E        	mov	a,m		;; 1031: 7e          ~
 0F32 FE3F      	cpi	'?'		;; 1032: fe 3f       .?
 0F34 C23C0F    	jnz	L103c		;; 1034: c2 3c 10    .<.
 0F37 23        	inx	h		;; 1037: 23          #
 0F38 BE        	cmp	m		;; 1038: be          .
 0F39 CA900F    	jz	L1090		;; 1039: ca 90 10    ...
                ; lookup symbol/string?
 0F3C 3A0000    L103c:	lda	L3009		;; 103c: 3a 09 30    :.0
 0F3F CDA10E    	call	hashch		;; 103f: cd a1 0f    ...
 0F42 210000    	lxi	h,symtab		;; 1042: 21 ac 2e    ...
 0F45 1600      	mvi	d,0		;; 1045: 16 00       ..
 0F47 19        	dad	d		;; 1047: 19          .
 0F48 19        	dad	d		;; 1048: 19          .
 0F49 220000    L1049:	shld	curhsh		;; 1049: 22 a8 2e    "..
 0F4C 5E        	mov	e,m		;; 104c: 5e          ^
 0F4D 23        	inx	h		;; 104d: 23          #
 0F4E 56        	mov	d,m		;; 104e: 56          V
 0F4F EB        	xchg			;; 104f: eb          .
 0F50 220000    	shld	cursym		;; 1050: 22 56 30    "V0
 0F53 7D        	mov	a,l		;; 1053: 7d          }
 0F54 B4        	ora	h		;; 1054: b4          .
 0F55 CA7B0F    	jz	nxtsym		;; 1055: ca 7b 10    .{.
 0F58 23        	inx	h		;; 1058: 23          #
 0F59 23        	inx	h		;; 1059: 23          #
 0F5A 7E        	mov	a,m		;; 105a: 7e          ~
 0F5B E60F      	ani	00fh		;; 105b: e6 0f       ..
 0F5D 3C        	inr	a		;; 105d: 3c          <
 0F5E 4F        	mov	c,a		;; 105e: 4f          O
 0F5F 110000    	lxi	d,L3008		;; 105f: 11 08 30    ..0
 0F62 46        	mov	b,m		;; 1062: 46          F
 0F63 13        L1063:	inx	d		;; 1063: 13          .
 0F64 23        	inx	h		;; 1064: 23          #
 0F65 1A        	ldax	d		;; 1065: 1a          .
 0F66 BE        	cmp	m		;; 1066: be          .
 0F67 DA7B0F    	jc	nxtsym		;; 1067: da 7b 10    .{.
 0F6A C2750F    	jnz	L1075		;; 106a: c2 75 10    .u.
 0F6D 05        	dcr	b		;; 106d: 05          .
 0F6E CA7B0F    	jz	nxtsym		;; 106e: ca 7b 10    .{.
 0F71 0D        	dcr	c		;; 1071: 0d          .
 0F72 C2630F    	jnz	L1063		;; 1072: c2 63 10    .c.
                	; found symbol match, or insertion point
 0F75 2A0000    L1075:	lhld	cursym		;; 1075: 2a 56 30    *V0
 0F78 C3490F    	jmp	L1049		;; 1078: c3 49 10    .I.
                
                ; locate next symbol in chain
 0F7B 2A0000    nxtsym:	lhld	cursym		;; 107b: 2a 56 30    *V0
 0F7E EB        	xchg			;; 107e: eb          .
 0F7F 2A0000    	lhld	L2eaa		;; 107f: 2a aa 2e    *..
 0F82 220000    	shld	cursym		;; 1082: 22 56 30    "V0
 0F85 73        	mov	m,e		;; 1085: 73          s
 0F86 23        	inx	h		;; 1086: 23          #
 0F87 72        	mov	m,d		;; 1087: 72          r
 0F88 2B        	dcx	h		;; 1088: 2b          +
 0F89 EB        	xchg			;; 1089: eb          .
 0F8A 2A0000    	lhld	curhsh		;; 108a: 2a a8 2e    *..
 0F8D 73        	mov	m,e		;; 108d: 73          s
 0F8E 23        	inx	h		;; 108e: 23          #
 0F8F 72        	mov	m,d		;; 108f: 72          r
 0F90 2A0000    L1090:	lhld	cursym		;; 1090: 2a 56 30    *V0
 0F93 23        	inx	h		;; 1093: 23          #
 0F94 23        	inx	h		;; 1094: 23          #
 0F95 7E        	mov	a,m		;; 1095: 7e          ~
 0F96 E60F      	ani	00fh		;; 1096: e6 0f       ..
 0F98 C604      	adi	004h		;; 1098: c6 04       ..
 0F9A 5F        	mov	e,a		;; 109a: 5f          _
 0F9B 1600      	mvi	d,0		;; 109b: 16 00       ..
 0F9D 19        	dad	d		;; 109d: 19          .
 0F9E 220000    L109e:	shld	cursym		;; 109e: 22 56 30    "V0
 0FA1 C3CA0E    	jmp	L0fca		;; 10a1: c3 ca 0f    ...
                
 0FA4 210000    L10a4:	lxi	h,symtab		;; 10a4: 21 ac 2e    ...
 0FA7 220000    	shld	curhsh		;; 10a7: 22 a8 2e    "..
 0FAA 3E1C      	mvi	a,01ch		;; 10aa: 3e 1c       >.
 0FAC 320000    	sta	L2ea7		;; 10ac: 32 a7 2e    2..
 0FAF 2A0000    L10af:	lhld	curhsh		;; 10af: 2a a8 2e    *..
 0FB2 5E        	mov	e,m		;; 10b2: 5e          ^
 0FB3 23        	inx	h		;; 10b3: 23          #
 0FB4 56        	mov	d,m		;; 10b4: 56          V
 0FB5 23        	inx	h		;; 10b5: 23          #
 0FB6 220000    	shld	curhsh		;; 10b6: 22 a8 2e    "..
 0FB9 EB        	xchg			;; 10b9: eb          .
 0FBA 220000    	shld	cursym		;; 10ba: 22 56 30    "V0
 0FBD 2A0000    L10bd:	lhld	cursym		;; 10bd: 2a 56 30    *V0
 0FC0 7D        	mov	a,l		;; 10c0: 7d          }
 0FC1 B4        	ora	h		;; 10c1: b4          .
 0FC2 CA6410    	jz	L1164		;; 10c2: ca 64 11    .d.
 0FC5 23        	inx	h		;; 10c5: 23          #
 0FC6 23        	inx	h		;; 10c6: 23          #
 0FC7 7E        	mov	a,m		;; 10c7: 7e          ~
 0FC8 E60F      	ani	00fh		;; 10c8: e6 0f       ..
 0FCA 3C        	inr	a		;; 10ca: 3c          <
 0FCB 320000    	sta	L2ea6		;; 10cb: 32 a6 2e    2..
 0FCE 47        	mov	b,a		;; 10ce: 47          G
 0FCF 2A0000    	lhld	cursym		;; 10cf: 2a 56 30    *V0
 0FD2 23        	inx	h		;; 10d2: 23          #
 0FD3 23        	inx	h		;; 10d3: 23          #
 0FD4 220000    	shld	L3058		;; 10d4: 22 58 30    "X0
 0FD7 3A0000    	lda	L2ea5		;; 10d7: 3a a5 2e    :..
 0FDA B7        	ora	a		;; 10da: b7          .
 0FDB CAFA0F    	jz	L10fa		;; 10db: ca fa 10    ...
 0FDE 3E09      	mvi	a,009h		;; 10de: 3e 09       >.
 0FE0 CD7510    	call	L1175		;; 10e0: cd 75 11    .u.
 0FE3 210000    	lxi	h,L2ea5		;; 10e3: 21 a5 2e    ...
 0FE6 7E        	mov	a,m		;; 10e6: 7e          ~
 0FE7 E6F8      	ani	0f8h		;; 10e7: e6 f8       ..
 0FE9 C608      	adi	008h		;; 10e9: c6 08       ..
 0FEB 77        	mov	m,a		;; 10eb: 77          w
 0FEC E60F      	ani	00fh		;; 10ec: e6 0f       ..
 0FEE CAFA0F    	jz	L10fa		;; 10ee: ca fa 10    ...
 0FF1 3E08      	mvi	a,008h		;; 10f1: 3e 08       >.
 0FF3 86        	add	m		;; 10f3: 86          .
 0FF4 77        	mov	m,a		;; 10f4: 77          w
 0FF5 3E09      	mvi	a,009h		;; 10f5: 3e 09       >.
 0FF7 CD7510    	call	L1175		;; 10f7: cd 75 11    .u.
 0FFA 3A0000    L10fa:	lda	L2ea5		;; 10fa: 3a a5 2e    :..
 0FFD 80        	add	b		;; 10fd: 80          .
 0FFE C605      	adi	005h		;; 10fe: c6 05       ..
 1000 FE50      	cpi	'P'		;; 1100: fe 50       .P
 1002 DA2710    	jc	L1127		;; 1102: da 27 11    .'.
 1005 21C910    L1105:	lxi	h,prncol		;; 1105: 21 c9 11    ...
 1008 35        	dcr	m		;; 1108: 35          5
 1009 5E        	mov	e,m		;; 1109: 5e          ^
 100A 1600      	mvi	d,000h		;; 110a: 16 00       ..
 100C 1B        	dcx	d		;; 110c: 1b          .
 100D 210000    	lxi	h,prnbuf		;; 110d: 21 8c 2f    ../
 1010 19        	dad	d		;; 1110: 19          .
 1011 7E        	mov	a,m		;; 1111: 7e          ~
 1012 FE09      	cpi	009h		;; 1112: fe 09       ..
 1014 CA0510    	jz	L1105		;; 1114: ca 05 11    ...
 1017 21C910    	lxi	h,prncol		;; 1117: 21 c9 11    ...
 101A 7E        	mov	a,m		;; 111a: 7e          ~
 101B 3600      	mvi	m,000h		;; 111b: 36 00       6.
 101D 320000    	sta	L3004		;; 111d: 32 04 30    2.0
 1020 CD0000    	call	L2595		;; 1120: cd 95 25    ..%
 1023 AF        	xra	a		;; 1123: af          .
 1024 320000    	sta	L2ea5		;; 1124: 32 a5 2e    2..
 1027 CD0000    L1127:	call	L1c18		;; 1127: cd 18 1c    ...
 102A E5        	push	h		;; 112a: e5          .
 102B 7C        	mov	a,h		;; 112b: 7c          |
 102C CD7A0E    	call	prnhex		;; 112c: cd 7a 0f    .z.
 102F E1        	pop	h		;; 112f: e1          .
 1030 7D        	mov	a,l		;; 1130: 7d          }
 1031 CD7A0E    	call	prnhex		;; 1131: cd 7a 0f    .z.
 1034 3E20      	mvi	a,' '		;; 1134: 3e 20       > 
 1036 CD7510    	call	L1175		;; 1136: cd 75 11    .u.
 1039 210000    	lxi	h,L2ea5		;; 1139: 21 a5 2e    ...
 103C 7E        	mov	a,m		;; 113c: 7e          ~
 103D C605      	adi	005h		;; 113d: c6 05       ..
 103F 77        	mov	m,a		;; 113f: 77          w
 1040 3A0000    	lda	L2ea6		;; 1140: 3a a6 2e    :..
 1043 B7        L1143:	ora	a		;; 1143: b7          .
 1044 CA5710    	jz	L1157		;; 1144: ca 57 11    .W.
 1047 3D        	dcr	a		;; 1147: 3d          =
 1048 F5        	push	psw		;; 1148: f5          .
 1049 CD0000    	call	L1c2a		;; 1149: cd 2a 1c    .*.
 104C CD7510    	call	L1175		;; 114c: cd 75 11    .u.
 104F 210000    	lxi	h,L2ea5		;; 114f: 21 a5 2e    ...
 1052 34        	inr	m		;; 1152: 34          4
 1053 F1        	pop	psw		;; 1153: f1          .
 1054 C34310    	jmp	L1143		;; 1154: c3 43 11    .C.
                
 1057 2A0000    L1157:	lhld	cursym		;; 1157: 2a 56 30    *V0
 105A 5E        	mov	e,m		;; 115a: 5e          ^
 105B 23        	inx	h		;; 115b: 23          #
 105C 56        	mov	d,m		;; 115c: 56          V
 105D EB        	xchg			;; 115d: eb          .
 105E 220000    	shld	cursym		;; 115e: 22 56 30    "V0
 1061 C3BD0F    	jmp	L10bd		;; 1161: c3 bd 10    ...
                
 1064 210000    L1164:	lxi	h,L2ea7		;; 1164: 21 a7 2e    ...
 1067 35        	dcr	m		;; 1167: 35          5
 1068 C2AF0F    	jnz	L10af		;; 1168: c2 af 10    ...
 106B 3AC910    	lda	prncol		;; 116b: 3a c9 11    :..
 106E 320000    	sta	L3004		;; 116e: 32 04 30    2.0
 1071 CD0000    	call	L2595		;; 1171: cd 95 25    ..%
 1074 C9        	ret			;; 1174: c9          .
                
 1075 21C910    L1175:	lxi	h,prncol		;; 1175: 21 c9 11    ...
 1078 5E        	mov	e,m		;; 1178: 5e          ^
 1079 1600      	mvi	d,0		;; 1179: 16 00       ..
 107B 34        	inr	m		;; 117b: 34          4
 107C 210000    	lxi	h,prnbuf		;; 117c: 21 8c 2f    ../
 107F 19        	dad	d		;; 117f: 19          .
 1080 77        	mov	m,a		;; 1180: 77          w
 1081 C9        	ret			;; 1181: c9          .
                
 1082 F5        Rerror:	push	psw		;; 1182: f5          .
 1083 C5        	push	b		;; 1183: c5          .
 1084 3E52      	mvi	a,'R'		;; 1184: 3e 52       >R
 1086 CD0000    	call	setere		;; 1186: cd 98 25    ..%
 1089 C1        	pop	b		;; 1189: c1          .
 108A F1        	pop	psw		;; 118a: f1          .
 108B C9        	ret			;; 118b: c9          .
                
 108C F5        Verror:	push	psw		;; 118c: f5          .
 108D E5        	push	h		;; 118d: e5          .
 108E 3E56      	mvi	a,'V'		;; 118e: 3e 56       >V
 1090 CD0000    	call	setere		;; 1190: cd 98 25    ..%
 1093 E1        	pop	h		;; 1193: e1          .
 1094 F1        	pop	psw		;; 1194: f1          .
 1095 C9        	ret			;; 1195: c9          .
                
 1096 F5        Derror:	push	psw		;; 1196: f5          .
 1097 3E44      	mvi	a,'D'		;; 1197: 3e 44       >D
 1099 C3BD10    	jmp	L11bd		;; 1199: c3 bd 11    ...
                
 109C F5        Perror:	push	psw		;; 119c: f5          .
 109D 3E50      	mvi	a,'P'		;; 119d: 3e 50       >P
 109F C3BD10    	jmp	L11bd		;; 119f: c3 bd 11    ...
                
 10A2 F5        Lerror:	push	psw		;; 11a2: f5          .
 10A3 3E4C      	mvi	a,'L'		;; 11a3: 3e 4c       >L
 10A5 C3BD10    	jmp	L11bd		;; 11a5: c3 bd 11    ...
                
 10A8 F5        Oerror:	push	psw		;; 11a8: f5          .
 10A9 3E4F      	mvi	a,'O'		;; 11a9: 3e 4f       >O
 10AB C3BD10    	jmp	L11bd		;; 11ab: c3 bd 11    ...
                
 10AE F5        Berror:	push	psw		;; 11ae: f5          .
 10AF 3E42      	mvi	a,'B'		;; 11af: 3e 42       >B
 10B1 C3BD10    	jmp	L11bd		;; 11b1: c3 bd 11    ...
                
 10B4 F5        Serror:	push	psw		;; 11b4: f5          .
 10B5 3E53      	mvi	a,'S'		;; 11b5: 3e 53       >S
 10B7 C3BD10    	jmp	L11bd		;; 11b7: c3 bd 11    ...
                
 10BA F5        Nerror:	push	psw		;; 11ba: f5          .
 10BB 3E4E      	mvi	a,'N'		;; 11bb: 3e 4e       >N
 10BD CD0000    L11bd:	call	setere		;; 11bd: cd 98 25    ..%
 10C0 F1        	pop	psw		;; 11c0: f1          .
 10C1 C9        	ret			;; 11c1: c9          .
                
 10C2 00        L11c2:	db	0
 10C3 0000      L11c3:	db	0,0
 10C5 0000      L11c5:	db	0,0
 10C7 0000      L11c7:	db	0,0
 10C9 00        prncol:	db	0
 10CA 00        L11ca:	db	0
 10CB 00        L11cb:	db	0
 10CC 00        L11cc:	db	0
 10CD 00        L11cd:	db	0
 10CE 0000000000L11ce:	db	0,0,0,0,0,0,0,0
 10D6 0000      L11d6:	db	0,0
 10D8 0000      L11d8:	db	0,0
 10DA 00        L11da:	db	0
 10DB 00        L11db:	db	0
 10DC 0000      L11dc:	db	0,0
 10DE 0000      L11de:	db	0,0
 10E0 0000      L11e0:	db	0,0
 10E2 0000      L11e2:	db	0,0
                
 10E4 2AE210    L11e4:	lhld	L11e2		;; 11e4: 2a e2 11    *..
 10E7 CDDD0D    	call	compr1		;; 11e7: cd dd 0e    ...
 10EA C0        	rnz			;; 11ea: c0          .
 10EB 3600      	mvi	m,0		;; 11eb: 36 00       6.
 10ED C9        	ret			;; 11ed: c9          .
                
 10EE 220000    L11ee:	shld	L2ef4		;; 11ee: 22 f4 2e    "..
 10F1 7E        	mov	a,m		;; 11f1: 7e          ~
 10F2 FE0D      	cpi	cr		;; 11f2: fe 0d       ..
 10F4 C0        	rnz			;; 11f4: c0          .
 10F5 3600      	mvi	m,0		;; 11f5: 36 00       6.
 10F7 C9        	ret			;; 11f7: c9          .
                
 10F8 0000AF0000	db	0,0,0afh,0,0,0,14h,13h ; serial number?
 1100           	end
