                ; MAC.COM - module 2
                
                	public	L1600,L1603,L1606,L1609,L160c
                	maclib	m1200
                	maclib	m1c00
                	maclib	m2100
                	maclib	m2580
                	maclib	macg
                
                	; patch - hooked in to mac1c00 spare memory
                	public	L1652
                
                ; Module begin L1600
                	; org	1600h
                	cseg
 0000 C30000    L1600:	jmp	L1c00		;; 1600: c3 00 1c    ...
 0003 C3F101    L1603:	jmp	L17f1		;; 1603: c3 f1 17    ...
 0006 C3B302    L1606:	jmp	L18b3		;; 1606: c3 b3 18    ...
 0009 C36600    L1609:	jmp	L1666		;; 1609: c3 66 16    .f.
 000C C3FC04    L160c:	jmp	L1afc		;; 160c: c3 fc 1a    ...
                
 000F 1A        L160f:	db	1ah
 0010 000000    L1610:	db	0,0,0
 0013 000000    L1613:	db	0,0,0
 0016 00        L1616:	db	0
 0017 01        L1617:	db	1
 0018 1A        L1618:	db	1ah
                
 0019 3A0000    L1619:	lda	L2ea3		;; 1619: 3a a3 2e    :..
 001C B7        	ora	a		;; 161c: b7          .
 001D CA4F00    	jz	L164f		;; 161d: ca 4f 16    .O.
 0020 2A0000    	lhld	L2ef4		;; 1620: 2a f4 2e    *..
 0023 7E        	mov	a,m		;; 1623: 7e          ~
 0024 B7        	ora	a		;; 1624: b7          .
 0025 C24800    	jnz	L1648		;; 1625: c2 48 16    .H.
 0028 3A0000    	lda	L2ea4		;; 1628: 3a a4 2e    :..
 002B FE02      	cpi	002h		;; 162b: fe 02       ..
 002D CA3D00    	jz	L163d		;; 162d: ca 3d 16    .=.
 0030 211800    	lxi	h,L1618		;; 1630: 21 18 16    ...
 0033 34        	inr	m		;; 1633: 34          4
 0034 3E00      	mvi	a,000h		;; 1634: 3e 00       >.
 0036 C0        	rnz			;; 1636: c0          .
 0037 CDE705    	call	L1be7		;; 1637: cd e7 1b    ...
 003A CD0000    	call	L2595		;; 163a: cd 95 25    ..%
 003D CD0000    L163d:	call	L1c30		;; 163d: cd 30 1c    .0.
 0040 3A0000    	lda	L2f14		;; 1640: 3a 14 2f    :./
 0043 B7        	ora	a		;; 1643: b7          .
 0044 C0        	rnz			;; 1644: c0          .
 0045 C31900    	jmp	L1619		;; 1645: c3 19 16    ...
                
 0048 23        L1648:	inx	h		;; 1648: 23          #
 0049 220000    	shld	L2ef4		;; 1649: 22 f4 2e    "..
 004C C30000    	jmp	L20d8	; divert to patch
                
 004F CD0000    L164f:	call	L2586		;; 164f: cd 86 25    ..%
 0052 321800    L1652:	sta	L1618		;; 1652: 32 18 16    2..
 0055 47        	mov	b,a		;; 1655: 47          G
 0056 3A0000    	lda	L3005		;; 1656: 3a 05 30    :.0
 0059 FE03      	cpi	003h		;; 1659: fe 03       ..
 005B 78        	mov	a,b		;; 165b: 78          x
 005C C8        	rz			;; 165c: c8          .
 005D FE61      	cpi	'a'		;; 165d: fe 61       .a
 005F D8        	rc			;; 165f: d8          .
 0060 FE7B      	cpi	'z'+1		;; 1660: fe 7b       .{
 0062 D0        	rnc			;; 1662: d0          .
 0063 E65F      	ani	05fh		;; 1663: e6 5f       ._
 0065 C9        	ret			;; 1665: c9          .
                
 0066 F5        L1666:	push	psw		;; 1666: f5          .
 0067 FE0D      	cpi	cr		;; 1667: fe 0d       ..
 0069 CA8700    	jz	L1687		;; 1669: ca 87 16    ...
 006C FE0A      	cpi	lf		;; 166c: fe 0a       ..
 006E CA8700    	jz	L1687		;; 166e: ca 87 16    ...
 0071 3A0000    	lda	L3004		;; 1671: 3a 04 30    :.0
 0074 FE78      	cpi	120		;; 1674: fe 78       .x
 0076 D28700    	jnc	L1687		;; 1676: d2 87 16    ...
 0079 5F        	mov	e,a		;; 1679: 5f          _
 007A 1600      	mvi	d,000h		;; 167a: 16 00       ..
 007C 3C        	inr	a		;; 167c: 3c          <
 007D 320000    	sta	L3004		;; 167d: 32 04 30    2.0
 0080 210000    	lxi	h,prnbuf	;; 1680: 21 8c 2f    ../
 0083 19        	dad	d		;; 1683: 19          .
 0084 F1        	pop	psw		;; 1684: f1          .
 0085 77        	mov	m,a		;; 1685: 77          w
 0086 C9        	ret			;; 1686: c9          .
                
 0087 F1        L1687:	pop	psw		;; 1687: f1          .
 0088 C9        	ret			;; 1688: c9          .
                
 0089 3A0000    L1689:	lda	L2f65		;; 1689: 3a 65 2f    :e/
 008C CD5302    	call	L1853		;; 168c: cd 53 18    .S.
 008F C0        	rnz			;; 168f: c0          .
 0090 3A0000    	lda	L2f65		;; 1690: 3a 65 2f    :e/
 0093 CD3902    	call	L1839		;; 1693: cd 39 18    .9.
 0096 C9        	ret			;; 1696: c9          .
                
 0097 AF        L1697:	xra	a		;; 1697: af          .
 0098 320000    	sta	L2f66		;; 1698: 32 66 2f    2f/
 009B 320000    	sta	L2f64		;; 169b: 32 64 2f    2d/
 009E CD1900    	call	L1619		;; 169e: cd 19 16    ...
 00A1 320000    	sta	L2f65		;; 16a1: 32 65 2f    2e/
 00A4 3A0000    	lda	L3005		;; 16a4: 3a 05 30    :.0
 00A7 FE06      	cpi	006h		;; 16a7: fe 06       ..
 00A9 C8        	rz			;; 16a9: c8          .
 00AA 3A0000    	lda	L2f65		;; 16aa: 3a 65 2f    :e/
 00AD FE80      	cpi	128		;; 16ad: fe 80       ..
 00AF DAC600    	jc	L16c6		;; 16af: da c6 16    ...
 00B2 CD0000    	call	L210c		;; 16b2: cd 0c 21    ...
 00B5 320000    	sta	L2f66		;; 16b5: 32 66 2f    2f/
 00B8 110000    	lxi	d,L2f67		;; 16b8: 11 67 2f    .g/
 00BB 7E        L16bb:	mov	a,m		;; 16bb: 7e          ~
 00BC 12        	stax	d		;; 16bc: 12          .
 00BD 23        	inx	h		;; 16bd: 23          #
 00BE 13        	inx	d		;; 16be: 13          .
 00BF 05        	dcr	b		;; 16bf: 05          .
 00C0 C2BB00    	jnz	L16bb		;; 16c0: c2 bb 16    ...
 00C3 C3E500    	jmp	L16e5		;; 16c3: c3 e5 16    ...
                
 00C6 CD5302    L16c6:	call	L1853		;; 16c6: cd 53 18    .S.
 00C9 C8        	rz			;; 16c9: c8          .
 00CA CD8900    L16ca:	call	L1689		;; 16ca: cd 89 16    ...
 00CD CAF000    	jz	L16f0		;; 16cd: ca f0 16    ...
 00D0 210000    	lxi	h,L2f66		;; 16d0: 21 66 2f    .f/
 00D3 7E        	mov	a,m		;; 16d3: 7e          ~
 00D4 FE0F      	cpi	00fh		;; 16d4: fe 0f       ..
 00D6 D2EE00    	jnc	L16ee		;; 16d6: d2 ee 16    ...
 00D9 34        	inr	m		;; 16d9: 34          4
 00DA 210000    	lxi	h,L2f67		;; 16da: 21 67 2f    .g/
 00DD 5F        	mov	e,a		;; 16dd: 5f          _
 00DE 1600      	mvi	d,000h		;; 16de: 16 00       ..
 00E0 19        	dad	d		;; 16e0: 19          .
 00E1 3A0000    	lda	L2f65		;; 16e1: 3a 65 2f    :e/
 00E4 77        	mov	m,a		;; 16e4: 77          w
 00E5 CD1900    L16e5:	call	L1619		;; 16e5: cd 19 16    ...
 00E8 320000    	sta	L2f65		;; 16e8: 32 65 2f    2e/
 00EB C3CA00    	jmp	L16ca		;; 16eb: c3 ca 16    ...
                
 00EE AF        L16ee:	xra	a		;; 16ee: af          .
 00EF C9        	ret			;; 16ef: c9          .
                
 00F0 AF        L16f0:	xra	a		;; 16f0: af          .
 00F1 3C        	inr	a		;; 16f1: 3c          <
 00F2 C9        	ret			;; 16f2: c9          .
                
 00F3 2A0000    L16f3:	lhld	cursym		;; 16f3: 2a 56 30    *V0
 00F6 221300    	shld	L1613		;; 16f6: 22 13 16    "..
 00F9 CD0000    	call	L1c33		;; 16f9: cd 33 1c    .3.
 00FC CD0000    	call	L1c36		;; 16fc: cd 36 1c    .6.
 00FF C0        	rnz			;; 16ff: c0          .
 0100 2A1300    	lhld	L1613		;; 1700: 2a 13 16    *..
 0103 220000    	shld	cursym		;; 1703: 22 56 30    "V0
 0106 C9        	ret			;; 1706: c9          .
                
 0107 AF        L1707:	xra	a		;; 1707: af          .
 0108 321700    	sta	L1617		;; 1708: 32 17 16    2..
 010B 211700    L170b:	lxi	h,L1617		;; 170b: 21 17 16    ...
 010E 34        	inr	m		;; 170e: 34          4
 010F C21D01    	jnz	L171d		;; 170f: c2 1d 17    ...
 0112 CDDB05    	call	L1bdb		;; 1712: cd db 1b    ...
 0115 210000    	lxi	h,L2f66		;; 1715: 21 66 2f    .f/
 0118 3600      	mvi	m,000h		;; 1718: 36 00       6.
 011A 220000    	shld	L2ef4		;; 171a: 22 f4 2e    "..
 011D 210000    L171d:	lxi	h,L2f66		;; 171d: 21 66 2f    .f/
 0120 7E        	mov	a,m		;; 1720: 7e          ~
 0121 B7        	ora	a		;; 1721: b7          .
 0122 CA3501    	jz	L1735		;; 1722: ca 35 17    .5.
 0125 35        	dcr	m		;; 1725: 35          5
 0126 210000    	lxi	h,L2f64		;; 1726: 21 64 2f    .d/
 0129 5E        	mov	e,m		;; 1729: 5e          ^
 012A 34        	inr	m		;; 172a: 34          4
 012B 1600      	mvi	d,000h		;; 172b: 16 00       ..
 012D 210000    	lxi	h,L2f67		;; 172d: 21 67 2f    .g/
 0130 19        	dad	d		;; 1730: 19          .
 0131 7E        	mov	a,m		;; 1731: 7e          ~
 0132 C36600    	jmp	L1666		;; 1732: c3 66 16    .f.
                
 0135 3A0000    L1735:	lda	L2ea3		;; 1735: 3a a3 2e    :..
 0138 B7        	ora	a		;; 1738: b7          .
 0139 3A0000    	lda	L2f65		;; 1739: 3a 65 2f    :e/
 013C C24A01    	jnz	L174a		;; 173c: c2 4a 17    .J.
 013F 47        	mov	b,a		;; 173f: 47          G
 0140 B7        	ora	a		;; 1740: b7          .
 0141 C27701    	jnz	L1777		;; 1741: c2 77 17    .w.
 0144 CD1900    	call	L1619		;; 1744: cd 19 16    ...
 0147 C36600    	jmp	L1666		;; 1747: c3 66 16    .f.
                
 014A B7        L174a:	ora	a		;; 174a: b7          .
 014B CA7F01    	jz	L177f		;; 174b: ca 7f 17    ...
 014E FE5E      	cpi	'^'		;; 174e: fe 5e       .^
 0150 C26C01    	jnz	L176c		;; 1750: c2 6c 17    .l.
 0153 CD9700    	call	L1697		;; 1753: cd 97 16    ...
 0156 065E      	mvi	b,'^'		;; 1756: 06 5e       .^
 0158 C27B01    	jnz	L177b		;; 1758: c2 7b 17    .{.
 015B 3A0000    	lda	L2f65		;; 175b: 3a 65 2f    :e/
 015E FE26      	cpi	'&'		;; 175e: fe 26       .&
 0160 C27B01    	jnz	L177b		;; 1760: c2 7b 17    .{.
 0163 210000    	lxi	h,L2f66		;; 1763: 21 66 2f    .f/
 0166 34        	inr	m		;; 1766: 34          4
 0167 23        	inx	h		;; 1767: 23          #
 0168 77        	mov	m,a		;; 1768: 77          w
 0169 C37701    	jmp	L1777		;; 1769: c3 77 17    .w.
                
 016C FE26      L176c:	cpi	'&'		;; 176c: fe 26       .&
 016E CA9E01    	jz	L179e		;; 176e: ca 9e 17    ...
 0171 47        	mov	b,a		;; 1771: 47          G
 0172 FE7F      	cpi	del		;; 1772: fe 7f       ..
 0174 CAB101    	jz	L17b1		;; 1774: ca b1 17    ...
 0177 AF        L1777:	xra	a		;; 1777: af          .
 0178 320000    	sta	L2f65		;; 1778: 32 65 2f    2e/
 017B 78        L177b:	mov	a,b		;; 177b: 78          x
 017C C36600    	jmp	L1666		;; 177c: c3 66 16    .f.
                
 017F CD9700    L177f:	call	L1697		;; 177f: cd 97 16    ...
 0182 CA0B01    	jz	L170b		;; 1782: ca 0b 17    ...
 0185 3A0000    	lda	L2f65		;; 1785: 3a 65 2f    :e/
 0188 FE26      	cpi	'&'		;; 1788: fe 26       .&
 018A CA9501    	jz	L1795		;; 178a: ca 95 17    ...
 018D 3A0000    	lda	L3005		;; 178d: 3a 05 30    :.0
 0190 FE03      	cpi	003h		;; 1790: fe 03       ..
 0192 CA0B01    	jz	L170b		;; 1792: ca 0b 17    ...
 0195 CDF300    L1795:	call	L16f3		;; 1795: cd f3 16    ...
 0198 CA0B01    	jz	L170b		;; 1798: ca 0b 17    ...
 019B C3BD01    	jmp	L17bd		;; 179b: c3 bd 17    ...
                
 019E CD9700    L179e:	call	L1697		;; 179e: cd 97 16    ...
 01A1 0626      	mvi	b,'&'		;; 17a1: 06 26       .&
 01A3 CA7B01    	jz	L177b		;; 17a3: ca 7b 17    .{.
 01A6 CDF300    	call	L16f3		;; 17a6: cd f3 16    ...
 01A9 0626      	mvi	b,'&'		;; 17a9: 06 26       .&
 01AB CA7B01    	jz	L177b		;; 17ab: ca 7b 17    .{.
 01AE C3BD01    	jmp	L17bd		;; 17ae: c3 bd 17    ...
                
 01B1 CD9700    L17b1:	call	L1697		;; 17b1: cd 97 16    ...
 01B4 CA0B01    	jz	L170b		;; 17b4: ca 0b 17    ...
 01B7 CDF300    	call	L16f3		;; 17b7: cd f3 16    ...
 01BA CA0B01    	jz	L170b		;; 17ba: ca 0b 17    ...
 01BD 210000    L17bd:	lxi	h,L2f65		;; 17bd: 21 65 2f    .e/
 01C0 7E        	mov	a,m		;; 17c0: 7e          ~
 01C1 FE26      	cpi	'&'		;; 17c1: fe 26       .&
 01C3 C2C801    	jnz	L17c8		;; 17c3: c2 c8 17    ...
 01C6 3E7F      	mvi	a,del		;; 17c6: 3e 7f       >.
 01C8 3600      L17c8:	mvi	m,0		;; 17c8: 36 00       6.
 01CA 320000    	sta	L2f14		;; 17ca: 32 14 2f    2./
 01CD CD0000    	call	L1c2d		;; 17cd: cd 2d 1c    .-.
 01D0 210000    	lxi	h,L2ea4		;; 17d0: 21 a4 2e    ...
 01D3 3602      	mvi	m,002h		;; 17d3: 36 02       6.
 01D5 2A0000    	lhld	memtop		;; 17d5: 2a 4d 30    *M0
 01D8 220000    	shld	L2f24		;; 17d8: 22 24 2f    "$/
 01DB CD0000    	call	L1c42		;; 17db: cd 42 1c    .B.
 01DE 220000    	shld	L2ef4		;; 17de: 22 f4 2e    "..
 01E1 AF        	xra	a		;; 17e1: af          .
 01E2 320000    	sta	L2f66		;; 17e2: 32 66 2f    2f/
 01E5 2A1300    	lhld	L1613		;; 17e5: 2a 13 16    *..
 01E8 220000    	shld	cursym		;; 17e8: 22 56 30    "V0
 01EB CD9700    	call	L1697		;; 17eb: cd 97 16    ...
 01EE C30B01    	jmp	L170b		;; 17ee: c3 0b 17    ...
                
 01F1 CD0E02    L17f1:	call	L180e		;; 17f1: cd 0e 18    ...
 01F4 320000    	sta	L2f66		;; 17f4: 32 66 2f    2f/
 01F7 320000    	sta	L2f65		;; 17f7: 32 65 2f    2e/
 01FA 320000    	sta	L305b		;; 17fa: 32 5b 30    2[0
 01FD 320000    	sta	L3004		;; 17fd: 32 04 30    2.0
 0200 3E0A      	mvi	a,lf		;; 1800: 3e 0a       >.
 0202 320F00    	sta	L160f		;; 1802: 32 0f 16    2..
 0205 CD0000    	call	L2595		;; 1805: cd 95 25    ..%
 0208 3E10      	mvi	a,010h		;; 1808: 3e 10       >.
 020A 320000    	sta	L3004		;; 180a: 32 04 30    2.0
 020D C9        	ret			;; 180d: c9          .
                
 020E AF        L180e:	xra	a		;; 180e: af          .
 020F 320000    	sta	L3008		;; 180f: 32 08 30    2.0
 0212 321000    	sta	L1610		;; 1812: 32 10 16    2..
 0215 C9        	ret			;; 1815: c9          .
                
 0216 210000    L1816:	lxi	h,L3008		;; 1816: 21 08 30    ..0
 0219 7E        	mov	a,m		;; 1819: 7e          ~
 021A FE40      	cpi	64		;; 181a: fe 40       .@
 021C DA2402    	jc	L1824		;; 181c: da 24 18    .$.
 021F 3600      	mvi	m,0		;; 181f: 36 00       6.
 0221 CDDB05    	call	L1bdb		;; 1821: cd db 1b    ...
 0224 5E        L1824:	mov	e,m		;; 1824: 5e          ^
 0225 1600      	mvi	d,0		;; 1825: 16 00       ..
 0227 34        	inr	m		;; 1827: 34          4
 0228 23        	inx	h		;; 1828: 23          #
 0229 19        	dad	d		;; 1829: 19          .
 022A 3A0000    	lda	L305b		;; 182a: 3a 5b 30    :[0
 022D 77        	mov	m,a		;; 182d: 77          w
 022E C9        	ret			;; 182e: c9          .
                
 022F 7E        L182f:	mov	a,m		;; 182f: 7e          ~
 0230 FE24      	cpi	'$'		;; 1830: fe 24       .$
 0232 C0        	rnz			;; 1832: c0          .
 0233 AF        	xra	a		;; 1833: af          .
 0234 77        	mov	m,a		;; 1834: 77          w
 0235 C9        	ret			;; 1835: c9          .
                
                ; is char '0'-'9'?
 0236 3A0000    L1836:	lda	L305b		;; 1836: 3a 5b 30    :[0
 0239 D630      L1839:	sui	'0'		;; 1839: d6 30       .0
 023B FE0A      	cpi	10		;; 183b: fe 0a       ..
 023D 17        	ral			;; 183d: 17          .
 023E E601      	ani	001h		;; 183e: e6 01       ..
 0240 C9        	ret			;; 1840: c9          .
                
                ; is char 'A'-'F'?
 0241 CD3602    L1841:	call	L1836		;; 1841: cd 36 18    .6.
 0244 C0        	rnz			;; 1844: c0          .
 0245 3A0000    	lda	L305b		;; 1845: 3a 5b 30    :[0
 0248 D641      	sui	'A'		;; 1848: d6 41       .A
 024A FE06      	cpi	6		;; 184a: fe 06       ..
 024C 17        	ral			;; 184c: 17          .
 024D E601      	ani	001h		;; 184d: e6 01       ..
 024F C9        	ret			;; 184f: c9          .
                
                ; is first char of symbol valid?
 0250 3A0000    L1850:	lda	L305b		;; 1850: 3a 5b 30    :[0
 0253 FE3F      L1853:	cpi	'?'		;; 1853: fe 3f       .?
 0255 CA6502    	jz	L1865		;; 1855: ca 65 18    .e.
 0258 FE40      	cpi	'@'		;; 1858: fe 40       .@
 025A CA6502    	jz	L1865		;; 185a: ca 65 18    .e.
 025D D641      	sui	'A'		;; 185d: d6 41       .A
 025F FE1A      	cpi	'Z'-'A'+1		;; 185f: fe 1a       ..
 0261 17        	ral			;; 1861: 17          .
 0262 E601      	ani	001h		;; 1862: e6 01       ..
 0264 C9        	ret			;; 1864: c9          .
                
 0265 B7        L1865:	ora	a		;; 1865: b7          .
 0266 C9        	ret			;; 1866: c9          .
                
 0267 CD5002    L1867:	call	L1850		;; 1867: cd 50 18    .P.
 026A C0        	rnz			;; 186a: c0          .
 026B CD3602    	call	L1836		;; 186b: cd 36 18    .6.
 026E C9        	ret			;; 186e: c9          .
                
                ; is char end-of-field?
 026F FE20      L186f:	cpi	' '		;; 186f: fe 20       . 
 0271 D0        	rnc			;; 1871: d0          .
 0272 FE09      	cpi	tab		;; 1872: fe 09       ..
 0274 C8        	rz			;; 1874: c8          .
 0275 FE0D      	cpi	cr		;; 1875: fe 0d       ..
 0277 C8        	rz			;; 1877: c8          .
 0278 FE0A      	cpi	lf		;; 1878: fe 0a       ..
 027A C8        	rz			;; 187a: c8          .
 027B FE1A      	cpi	eof		;; 187b: fe 1a       ..
 027D C8        	rz			;; 187d: c8          .
 027E C3E105    	jmp	L1be1		;; 187e: c3 e1 1b    ...
                
 0281 CD0701    L1881:	call	L1707		;; 1881: cd 07 17    ...
 0284 CD6F02    	call	L186f		;; 1884: cd 6f 18    .o.
 0287 320000    	sta	L305b		;; 1887: 32 5b 30    2[0
 028A 3A0000    	lda	L305a		;; 188a: 3a 5a 30    :Z0
 028D B7        	ora	a		;; 188d: b7          .
 028E CAA602    	jz	L18a6		;; 188e: ca a6 18    ...
 0291 3A0000    	lda	L305c		;; 1891: 3a 5c 30    :\0
 0294 FE01      	cpi	001h		;; 1894: fe 01       ..
 0296 C2A002    	jnz	L18a0		;; 1896: c2 a0 18    ...
 0299 3A0000    	lda	pass		;; 1899: 3a 4f 30    :O0
 029C B7        	ora	a		;; 189c: b7          .
 029D C2A602    	jnz	L18a6		;; 189d: c2 a6 18    ...
 02A0 3A0000    L18a0:	lda	L305b		;; 18a0: 3a 5b 30    :[0
 02A3 CD0000    	call	L1c27		;; 18a3: cd 27 1c    .'.
 02A6 3A0000    L18a6:	lda	L305b		;; 18a6: 3a 5b 30    :[0
 02A9 C9        	ret			;; 18a9: c9          .
                
                ; is char end-of-statement?
 02AA FE0D      L18aa:	cpi	cr		;; 18aa: fe 0d       ..
 02AC C8        	rz			;; 18ac: c8          .
 02AD FE1A      	cpi	eof		;; 18ad: fe 1a       ..
 02AF C8        	rz			;; 18af: c8          .
 02B0 FE21      	cpi	'!'		;; 18b0: fe 21       ..
 02B2 C9        	ret			;; 18b2: c9          .
                
 02B3 CD0E02    L18b3:	call	L180e		;; 18b3: cd 0e 18    ...
 02B6 AF        L18b6:	xra	a		;; 18b6: af          .
 02B7 320000    	sta	L3005		;; 18b7: 32 05 30    2.0
 02BA 3A0000    	lda	L305b		;; 18ba: 3a 5b 30    :[0
 02BD FE09      	cpi	tab		;; 18bd: fe 09       ..
 02BF CA5203    	jz	L1952		;; 18bf: ca 52 19    .R.
 02C2 FE3B      	cpi	';'		;; 18c2: fe 3b       .;
 02C4 C22F03    	jnz	L192f		;; 18c4: c2 2f 19    ./.
 02C7 3E06      	mvi	a,006h		;; 18c7: 3e 06       >.
 02C9 320000    	sta	L3005		;; 18c9: 32 05 30    2.0
 02CC 3A0000    	lda	L305a		;; 18cc: 3a 5a 30    :Z0
 02CF B7        	ora	a		;; 18cf: b7          .
 02D0 CA3F03    	jz	L193f		;; 18d0: ca 3f 19    .?.
 02D3 3A0000    	lda	L305c		;; 18d3: 3a 5c 30    :\0
 02D6 FE01      	cpi	001h		;; 18d6: fe 01       ..
 02D8 C2E202    	jnz	L18e2		;; 18d8: c2 e2 18    ...
 02DB 3A0000    	lda	pass		;; 18db: 3a 4f 30    :O0
 02DE B7        	ora	a		;; 18de: b7          .
 02DF C23F03    	jnz	L193f		;; 18df: c2 3f 19    .?.
 02E2 CD8102    L18e2:	call	L1881		;; 18e2: cd 81 18    ...
 02E5 FE3B      	cpi	';'		;; 18e5: fe 3b       .;
 02E7 C24203    	jnz	L1942		;; 18e7: c2 42 19    .B.
 02EA 2A0000    	lhld	L3060		;; 18ea: 2a 60 30    *`0
 02ED EB        	xchg			;; 18ed: eb          .
 02EE 2A0000    	lhld	L3058		;; 18ee: 2a 58 30    *X0
 02F1 2B        	dcx	h		;; 18f1: 2b          +
 02F2 2B        	dcx	h		;; 18f2: 2b          +
 02F3 7B        L18f3:	mov	a,e		;; 18f3: 7b          {
 02F4 BD        	cmp	l		;; 18f4: bd          .
 02F5 C2FD02    	jnz	L18fd		;; 18f5: c2 fd 18    ...
 02F8 7A        	mov	a,d		;; 18f8: 7a          z
 02F9 BC        	cmp	h		;; 18f9: bc          .
 02FA CA1103    	jz	L1911		;; 18fa: ca 11 19    ...
 02FD 7E        L18fd:	mov	a,m		;; 18fd: 7e          ~
 02FE FE0A      	cpi	lf		;; 18fe: fe 0a       ..
 0300 C20803    	jnz	L1908		;; 1900: c2 08 19    ...
 0303 2B        	dcx	h		;; 1903: 2b          +
 0304 2B        	dcx	h		;; 1904: 2b          +
 0305 C31103    	jmp	L1911		;; 1905: c3 11 19    ...
                
 0308 FE21      L1908:	cpi	' '+1		;; 1908: fe 21       ..
 030A D21103    	jnc	L1911		;; 190a: d2 11 19    ...
 030D 2B        	dcx	h		;; 190d: 2b          +
 030E C3F302    	jmp	L18f3		;; 190e: c3 f3 18    ...
                
 0311 220000    L1911:	shld	L3058		;; 1911: 22 58 30    "X0
 0314 3A0000    	lda	L305a		;; 1914: 3a 5a 30    :Z0
 0317 F5        	push	psw		;; 1917: f5          .
 0318 AF        	xra	a		;; 1918: af          .
 0319 320000    	sta	L305a		;; 1919: 32 5a 30    2Z0
 031C CD8102    L191c:	call	L1881		;; 191c: cd 81 18    ...
 031F CDAA02    	call	L18aa		;; 191f: cd aa 18    ...
 0322 C21C03    	jnz	L191c		;; 1922: c2 1c 19    ...
 0325 CD0000    	call	L1c27		;; 1925: cd 27 1c    .'.
 0328 F1        	pop	psw		;; 1928: f1          .
 0329 320000    	sta	L305a		;; 1929: 32 5a 30    2Z0
 032C C35803    	jmp	L1958		;; 192c: c3 58 19    .X.
                
 032F 3A0000    L192f:	lda	L305b		;; 192f: 3a 5b 30    :[0
 0332 FE2A      	cpi	'*'		;; 1932: fe 2a       .*
 0334 C24B03    	jnz	L194b		;; 1934: c2 4b 19    .K.
 0337 3A0F00    	lda	L160f		;; 1937: 3a 0f 16    :..
 033A FE0A      	cpi	lf		;; 193a: fe 0a       ..
 033C C24B03    	jnz	L194b		;; 193c: c2 4b 19    .K.
 033F CD8102    L193f:	call	L1881		;; 193f: cd 81 18    ...
 0342 CDAA02    L1942:	call	L18aa		;; 1942: cd aa 18    ...
 0345 CA5803    	jz	L1958		;; 1945: ca 58 19    .X.
 0348 C33F03    	jmp	L193f		;; 1948: c3 3f 19    .?.
                
 034B F620      L194b:	ori	020h		;; 194b: f6 20       . 
 034D FE20      	cpi	020h		;; 194d: fe 20       . 
 034F C25803    	jnz	L1958		;; 194f: c2 58 19    .X.
 0352 CD8102    L1952:	call	L1881		;; 1952: cd 81 18    ...
 0355 C3B602    	jmp	L18b6		;; 1955: c3 b6 18    ...
                
 0358 AF        L1958:	xra	a		;; 1958: af          .
 0359 320000    	sta	L3005		;; 1959: 32 05 30    2.0
 035C CD5002    	call	L1850		;; 195c: cd 50 18    .P.
 035F CA6703    	jz	L1967		;; 195f: ca 67 19    .g.
 0362 3E01      	mvi	a,001h		;; 1962: 3e 01       >.
 0364 C3A303    	jmp	L19a3		;; 1964: c3 a3 19    ...
                
 0367 CD3602    L1967:	call	L1836		;; 1967: cd 36 18    .6.
 036A CA7203    	jz	L1972		;; 196a: ca 72 19    .r.
 036D 3E02      	mvi	a,002h		;; 196d: 3e 02       >.
 036F C3A303    	jmp	L19a3		;; 196f: c3 a3 19    ...
                
 0372 3A0000    L1972:	lda	L305b		;; 1972: 3a 5b 30    :[0
 0375 FE27      	cpi	''''		;; 1975: fe 27       .'
 0377 C28303    	jnz	L1983		;; 1977: c2 83 19    ...
 037A AF        	xra	a		;; 197a: af          .
 037B 320000    	sta	L305b		;; 197b: 32 5b 30    2[0
 037E 3E03      	mvi	a,003h		;; 197e: 3e 03       >.
 0380 C3A303    	jmp	L19a3		;; 1980: c3 a3 19    ...
                
 0383 FE0A      L1983:	cpi	lf		;; 1983: fe 0a       ..
 0385 C2A103    	jnz	L19a1		;; 1985: c2 a1 19    ...
 0388 3A0000    	lda	L2ea3		;; 1988: 3a a3 2e    :..
 038B B7        	ora	a		;; 198b: b7          .
 038C CA9403    	jz	L1994		;; 198c: ca 94 19    ...
 038F 3E2B      	mvi	a,'+'		;; 198f: 3e 2b       >+
 0391 320500    	sta	prnbuf+5	;; 1991: 32 91 2f    2./
 0394 CD0000    L1994:	call	L2595		;; 1994: cd 95 25    ..%
 0397 210000    	lxi	h,curerr	;; 1997: 21 8c 2f    ../
 039A 3620      	mvi	m,' '		;; 199a: 36 20       6 
 039C 3E10      	mvi	a,010h		;; 199c: 3e 10       >.
 039E 320000    	sta	L3004		;; 199e: 32 04 30    2.0
 03A1 3E04      L19a1:	mvi	a,004h		;; 19a1: 3e 04       >.
 03A3 320000    L19a3:	sta	L3005		;; 19a3: 32 05 30    2.0
 03A6 3A0000    L19a6:	lda	L305b		;; 19a6: 3a 5b 30    :[0
 03A9 320F00    	sta	L160f		;; 19a9: 32 0f 16    2..
 03AC B7        	ora	a		;; 19ac: b7          .
 03AD C41602    	cnz	L1816		;; 19ad: c4 16 18    ...
 03B0 CD8102    	call	L1881		;; 19b0: cd 81 18    ...
 03B3 3A0000    	lda	L3005		;; 19b3: 3a 05 30    :.0
 03B6 FE04      	cpi	004h		;; 19b6: fe 04       ..
 03B8 C20604    	jnz	L1a06		;; 19b8: c2 06 1a    ...
 03BB 3A0000    	lda	L305a		;; 19bb: 3a 5a 30    :Z0
 03BE B7        	ora	a		;; 19be: b7          .
 03BF C0        	rnz			;; 19bf: c0          .
 03C0 3A0000    	lda	L3009		;; 19c0: 3a 09 30    :.0
 03C3 FE3D      	cpi	'='		;; 19c3: fe 3d       .=
 03C5 C2CE03    	jnz	L19ce		;; 19c5: c2 ce 19    ...
 03C8 214551    	lxi	h,'EQ'		;; 19c8: 21 45 51    .EQ
 03CB C3F903    	jmp	L19f9		;; 19cb: c3 f9 19    ...
                
 03CE FE3C      L19ce:	cpi	'<'		;; 19ce: fe 3c       .<
 03D0 C2E403    	jnz	L19e4		;; 19d0: c2 e4 19    ...
 03D3 214C54    	lxi	h,'LT'		;; 19d3: 21 4c 54    .LT
 03D6 3A0000    	lda	L305b		;; 19d6: 3a 5b 30    :[0
 03D9 FE3D      	cpi	'='		;; 19d9: fe 3d       .=
 03DB C2F903    	jnz	L19f9		;; 19db: c2 f9 19    ...
 03DE 214C45    	lxi	h,'LE'		;; 19de: 21 4c 45    .LE
 03E1 C3F503    	jmp	L19f5		;; 19e1: c3 f5 19    ...
                
 03E4 FE3E      L19e4:	cpi	'>'		;; 19e4: fe 3e       .>
 03E6 C0        	rnz			;; 19e6: c0          .
 03E7 214754    	lxi	h,'GT'		;; 19e7: 21 47 54    .GT
 03EA 3A0000    	lda	L305b		;; 19ea: 3a 5b 30    :[0
 03ED FE3D      	cpi	'='		;; 19ed: fe 3d       .=
 03EF C2F903    	jnz	L19f9		;; 19ef: c2 f9 19    ...
 03F2 214745    	lxi	h,'GE'		;; 19f2: 21 47 45    .GE
 03F5 AF        L19f5:	xra	a		;; 19f5: af          .
 03F6 320000    	sta	L305b		;; 19f6: 32 5b 30    2[0
 03F9 220000    L19f9:	shld	L3009		;; 19f9: 22 09 30    ".0
 03FC 210000    	lxi	h,L3008		;; 19fc: 21 08 30    ..0
 03FF 34        	inr	m		;; 19ff: 34          4
 0400 3E01      	mvi	a,001h		;; 1a00: 3e 01       >.
 0402 320000    	sta	L3005		;; 1a02: 32 05 30    2.0
 0405 C9        	ret			;; 1a05: c9          .
                
 0406 210000    L1a06:	lxi	h,L305b		;; 1a06: 21 5b 30    .[0
 0409 3A0000    	lda	L3005		;; 1a09: 3a 05 30    :.0
 040C FE01      	cpi	001h		;; 1a0c: fe 01       ..
 040E C21E04    	jnz	L1a1e		;; 1a0e: c2 1e 1a    ...
 0411 CD2F02    	call	L182f		;; 1a11: cd 2f 18    ./.
 0414 CAA603    	jz	L19a6		;; 1a14: ca a6 19    ...
 0417 CD6702    	call	L1867		;; 1a17: cd 67 18    .g.
 041A C2A603    	jnz	L19a6		;; 1a1a: c2 a6 19    ...
 041D C9        	ret			;; 1a1d: c9          .
                
 041E FE02      L1a1e:	cpi	002h		;; 1a1e: fe 02       ..
 0420 C2B404    	jnz	L1ab4		;; 1a20: c2 b4 1a    ...
 0423 CD2F02    	call	L182f		;; 1a23: cd 2f 18    ./.
 0426 CAA603    	jz	L19a6		;; 1a26: ca a6 19    ...
 0429 CD4102    	call	L1841		;; 1a29: cd 41 18    .A.
 042C C2A603    	jnz	L19a6		;; 1a2c: c2 a6 19    ...
 042F 3A0000    	lda	L305b		;; 1a2f: 3a 5b 30    :[0
 0432 FE4F      	cpi	'O'		;; 1a32: fe 4f       .O
 0434 CA3C04    	jz	L1a3c		;; 1a34: ca 3c 1a    .<.
 0437 FE51      	cpi	'Q'		;; 1a37: fe 51       .Q
 0439 C24104    	jnz	L1a41		;; 1a39: c2 41 1a    .A.
 043C 3E08      L1a3c:	mvi	a,008h		;; 1a3c: 3e 08       >.
 043E C34804    	jmp	L1a48		;; 1a3e: c3 48 1a    .H.
                
 0441 FE48      L1a41:	cpi	'H'		;; 1a41: fe 48       .H
 0443 C25204    	jnz	L1a52		;; 1a43: c2 52 1a    .R.
 0446 3E10      	mvi	a,010h		;; 1a46: 3e 10       >.
 0448 321000    L1a48:	sta	L1610		;; 1a48: 32 10 16    2..
 044B AF        	xra	a		;; 1a4b: af          .
 044C 320000    	sta	L305b		;; 1a4c: 32 5b 30    2[0
 044F C36D04    	jmp	L1a6d		;; 1a4f: c3 6d 1a    .m.
                
 0452 3A0F00    L1a52:	lda	L160f		;; 1a52: 3a 0f 16    :..
 0455 FE42      	cpi	'B'		;; 1a55: fe 42       .B
 0457 C25F04    	jnz	L1a5f		;; 1a57: c2 5f 1a    ._.
 045A 3E02      	mvi	a,002h		;; 1a5a: 3e 02       >.
 045C C36604    	jmp	L1a66		;; 1a5c: c3 66 1a    .f.
                
 045F FE44      L1a5f:	cpi	'D'		;; 1a5f: fe 44       .D
 0461 3E0A      	mvi	a,lf		;; 1a61: 3e 0a       >.
 0463 C26A04    	jnz	L1a6a		;; 1a63: c2 6a 1a    .j.
 0466 210000    L1a66:	lxi	h,L3008		;; 1a66: 21 08 30    ..0
 0469 35        	dcr	m		;; 1a69: 35          5
 046A 321000    L1a6a:	sta	L1610		;; 1a6a: 32 10 16    2..
 046D 210000    L1a6d:	lxi	h,0		;; 1a6d: 21 00 00    ...
 0470 220000    	shld	L3006		;; 1a70: 22 06 30    ".0
 0473 210000    	lxi	h,L3008		;; 1a73: 21 08 30    ..0
 0476 4E        	mov	c,m		;; 1a76: 4e          N
 0477 23        	inx	h		;; 1a77: 23          #
 0478 7E        L1a78:	mov	a,m		;; 1a78: 7e          ~
 0479 23        	inx	h		;; 1a79: 23          #
 047A FE41      	cpi	'A'		;; 1a7a: fe 41       .A
 047C D28404    	jnc	L1a84		;; 1a7c: d2 84 1a    ...
 047F D630      	sui	'0'		;; 1a7f: d6 30       .0
 0481 C38604    	jmp	L1a86		;; 1a81: c3 86 1a    ...
                
 0484 D637      L1a84:	sui	'A'-10		;; 1a84: d6 37       .7
 0486 E5        L1a86:	push	h		;; 1a86: e5          .
 0487 C5        	push	b		;; 1a87: c5          .
 0488 4F        	mov	c,a		;; 1a88: 4f          O
 0489 211000    	lxi	h,L1610		;; 1a89: 21 10 16    ...
 048C BE        	cmp	m		;; 1a8c: be          .
 048D D4D505    	cnc	L1bd5		;; 1a8d: d4 d5 1b    ...
 0490 0600      	mvi	b,000h		;; 1a90: 06 00       ..
 0492 7E        	mov	a,m		;; 1a92: 7e          ~
 0493 2A0000    	lhld	L3006		;; 1a93: 2a 06 30    *.0
 0496 EB        	xchg			;; 1a96: eb          .
 0497 210000    	lxi	h,0		;; 1a97: 21 00 00    ...
 049A B7        L1a9a:	ora	a		;; 1a9a: b7          .
 049B CAA904    	jz	L1aa9		;; 1a9b: ca a9 1a    ...
 049E 1F        	rar			;; 1a9e: 1f          .
 049F D2A304    	jnc	L1aa3		;; 1a9f: d2 a3 1a    ...
 04A2 19        	dad	d		;; 1aa2: 19          .
 04A3 EB        L1aa3:	xchg			;; 1aa3: eb          .
 04A4 29        	dad	h		;; 1aa4: 29          )
 04A5 EB        	xchg			;; 1aa5: eb          .
 04A6 C39A04    	jmp	L1a9a		;; 1aa6: c3 9a 1a    ...
                
 04A9 09        L1aa9:	dad	b		;; 1aa9: 09          .
 04AA 220000    	shld	L3006		;; 1aaa: 22 06 30    ".0
 04AD C1        	pop	b		;; 1aad: c1          .
 04AE E1        	pop	h		;; 1aae: e1          .
 04AF 0D        	dcr	c		;; 1aaf: 0d          .
 04B0 C27804    	jnz	L1a78		;; 1ab0: c2 78 1a    .x.
 04B3 C9        	ret			;; 1ab3: c9          .
                
 04B4 3A0000    L1ab4:	lda	L305b		;; 1ab4: 3a 5b 30    :[0
 04B7 FE0D      	cpi	cr		;; 1ab7: fe 0d       ..
 04B9 CADB05    	jz	L1bdb		;; 1ab9: ca db 1b    ...
 04BC FE27      	cpi	''''		;; 1abc: fe 27       .'
 04BE C2A603    	jnz	L19a6		;; 1abe: c2 a6 19    ...
 04C1 CD8102    	call	L1881		;; 1ac1: cd 81 18    ...
 04C4 FE27      	cpi	''''		;; 1ac4: fe 27       .'
 04C6 C0        	rnz			;; 1ac6: c0          .
 04C7 C3A603    	jmp	L19a6		;; 1ac7: c3 a6 19    ...
                
 04CA 3A0000    L1aca:	lda	L305b		;; 1aca: 3a 5b 30    :[0
 04CD B7        	ora	a		;; 1acd: b7          .
 04CE C8        	rz			;; 1ace: c8          .
 04CF FE20      	cpi	' '		;; 1acf: fe 20       . 
 04D1 C8        	rz			;; 1ad1: c8          .
 04D2 FE09      	cpi	tab		;; 1ad2: fe 09       ..
 04D4 C9        	ret			;; 1ad4: c9          .
                
 04D5 3A0000    L1ad5:	lda	L305b		;; 1ad5: 3a 5b 30    :[0
 04D8 FE2C      	cpi	','		;; 1ad8: fe 2c       .,
 04DA C8        	rz			;; 1ada: c8          .
 04DB FE3B      	cpi	';'		;; 1adb: fe 3b       .;
 04DD C8        	rz			;; 1add: c8          .
 04DE FE25      	cpi	'%'		;; 1ade: fe 25       .%
 04E0 C8        	rz			;; 1ae0: c8          .
 04E1 3A0000    L1ae1:	lda	L305b		;; 1ae1: 3a 5b 30    :[0
 04E4 FE0D      	cpi	cr		;; 1ae4: fe 0d       ..
 04E6 C8        	rz			;; 1ae6: c8          .
 04E7 FE1A      	cpi	eof		;; 1ae7: fe 1a       ..
 04E9 C8        	rz			;; 1ae9: c8          .
 04EA FE21      	cpi	'!'		;; 1aea: fe 21       ..
 04EC C9        	ret			;; 1aec: c9          .
                
 04ED 3A0000    L1aed:	lda	L305b		;; 1aed: 3a 5b 30    :[0
 04F0 FE3B      	cpi	';'		;; 1af0: fe 3b       .;
 04F2 C8        	rz			;; 1af2: c8          .
 04F3 FE20      	cpi	' '		;; 1af3: fe 20       . 
 04F5 C8        	rz			;; 1af5: c8          .
 04F6 FE09      	cpi	tab		;; 1af6: fe 09       ..
 04F8 C8        	rz			;; 1af8: c8          .
 04F9 FE2C      	cpi	','		;; 1af9: fe 2c       .,
 04FB C9        	ret			;; 1afb: c9          .
                
 04FC CD0E02    L1afc:	call	L180e		;; 1afc: cd 0e 18    ...
 04FF AF        	xra	a		;; 1aff: af          .
 0500 320000    	sta	L3005		;; 1b00: 32 05 30    2.0
 0503 321600    	sta	L1616		;; 1b03: 32 16 16    2..
 0506 CDCA04    L1b06:	call	L1aca		;; 1b06: cd ca 1a    ...
 0509 C21205    	jnz	L1b12		;; 1b09: c2 12 1b    ...
 050C CD8102    	call	L1881		;; 1b0c: cd 81 18    ...
 050F C30605    	jmp	L1b06		;; 1b0f: c3 06 1b    ...
                
 0512 CDD504    L1b12:	call	L1ad5		;; 1b12: cd d5 1a    ...
 0515 C22F05    	jnz	L1b2f		;; 1b15: c2 2f 1b    ./.
 0518 3E04      	mvi	a,004h		;; 1b18: 3e 04       >.
 051A 320000    	sta	L3005		;; 1b1a: 32 05 30    2.0
 051D C3C905    	jmp	L1bc9		;; 1b1d: c3 c9 1b    ...
                
 0520 3A0000    L1b20:	lda	L305b		;; 1b20: 3a 5b 30    :[0
 0523 320F00    	sta	L160f		;; 1b23: 32 0f 16    2..
 0526 CD8102    	call	L1881		;; 1b26: cd 81 18    ...
 0529 3A0000    	lda	L3005		;; 1b29: 3a 05 30    :.0
 052C FE04      	cpi	004h		;; 1b2c: fe 04       ..
 052E C8        	rz			;; 1b2e: c8          .
 052F CDE104    L1b2f:	call	L1ae1		;; 1b2f: cd e1 1a    ...
 0532 C24705    	jnz	L1b47		;; 1b32: c2 47 1b    .G.
 0535 3A0000    	lda	L3005		;; 1b35: 3a 05 30    :.0
 0538 FE03      	cpi	003h		;; 1b38: fe 03       ..
 053A CCD505    	cz	L1bd5		;; 1b3a: cc d5 1b    ...
 053D 3A1600    	lda	L1616		;; 1b3d: 3a 16 16    :..
 0540 B7        	ora	a		;; 1b40: b7          .
 0541 C4D505    	cnz	L1bd5		;; 1b41: c4 d5 1b    ...
 0544 C3CF05    	jmp	L1bcf		;; 1b44: c3 cf 1b    ...
                
 0547 3A0000    L1b47:	lda	L3005		;; 1b47: 3a 05 30    :.0
 054A FE03      	cpi	003h		;; 1b4a: fe 03       ..
 054C C26C05    	jnz	L1b6c		;; 1b4c: c2 6c 1b    .l.
 054F 3A0000    	lda	L305b		;; 1b4f: 3a 5b 30    :[0
 0552 FE27      	cpi	''''		;; 1b52: fe 27       .'
 0554 C2C905    	jnz	L1bc9		;; 1b54: c2 c9 1b    ...
 0557 CD1602    	call	L1816		;; 1b57: cd 16 18    ...
 055A CD8102    	call	L1881		;; 1b5a: cd 81 18    ...
 055D 3A0000    	lda	L305b		;; 1b5d: 3a 5b 30    :[0
 0560 FE27      	cpi	''''		;; 1b60: fe 27       .'
 0562 CA2005    	jz	L1b20		;; 1b62: ca 20 1b    . .
 0565 AF        	xra	a		;; 1b65: af          .
 0566 320000    	sta	L3005		;; 1b66: 32 05 30    2.0
 0569 C32F05    	jmp	L1b2f		;; 1b69: c3 2f 1b    ./.
                
 056C 3A0000    L1b6c:	lda	L305b		;; 1b6c: 3a 5b 30    :[0
 056F FE27      	cpi	''''		;; 1b6f: fe 27       .'
 0571 C27C05    	jnz	L1b7c		;; 1b71: c2 7c 1b    .|.
 0574 3E03      	mvi	a,003h		;; 1b74: 3e 03       >.
 0576 320000    	sta	L3005		;; 1b76: 32 05 30    2.0
 0579 C3C905    	jmp	L1bc9		;; 1b79: c3 c9 1b    ...
                
 057C FE5E      L1b7c:	cpi	'^'		;; 1b7c: fe 5e       .^
 057E C29705    	jnz	L1b97		;; 1b7e: c2 97 1b    ...
 0581 CD8102    	call	L1881		;; 1b81: cd 81 18    ...
 0584 3A0000    	lda	L305b		;; 1b84: 3a 5b 30    :[0
 0587 FE09      	cpi	tab		;; 1b87: fe 09       ..
 0589 CAC905    	jz	L1bc9		;; 1b89: ca c9 1b    ...
 058C FE20      	cpi	' '		;; 1b8c: fe 20       . 
 058E D2C905    	jnc	L1bc9		;; 1b8e: d2 c9 1b    ...
 0591 CDE105    	call	L1be1		;; 1b91: cd e1 1b    ...
 0594 C3CF05    	jmp	L1bcf		;; 1b94: c3 cf 1b    ...
                
 0597 FE3C      L1b97:	cpi	'<'		;; 1b97: fe 3c       .<
 0599 C2A805    	jnz	L1ba8		;; 1b99: c2 a8 1b    ...
 059C 211600    	lxi	h,L1616		;; 1b9c: 21 16 16    ...
 059F 7E        	mov	a,m		;; 1b9f: 7e          ~
 05A0 34        	inr	m		;; 1ba0: 34          4
 05A1 B7        	ora	a		;; 1ba1: b7          .
 05A2 CA2005    	jz	L1b20		;; 1ba2: ca 20 1b    . .
 05A5 C3C905    	jmp	L1bc9		;; 1ba5: c3 c9 1b    ...
                
 05A8 FE3E      L1ba8:	cpi	'>'		;; 1ba8: fe 3e       .>
 05AA C2BC05    	jnz	L1bbc		;; 1baa: c2 bc 1b    ...
 05AD 211600    	lxi	h,L1616		;; 1bad: 21 16 16    ...
 05B0 7E        	mov	a,m		;; 1bb0: 7e          ~
 05B1 B7        	ora	a		;; 1bb1: b7          .
 05B2 CAC905    	jz	L1bc9		;; 1bb2: ca c9 1b    ...
 05B5 35        	dcr	m		;; 1bb5: 35          5
 05B6 CA2005    	jz	L1b20		;; 1bb6: ca 20 1b    . .
 05B9 C3C905    	jmp	L1bc9		;; 1bb9: c3 c9 1b    ...
                
 05BC 3A1600    L1bbc:	lda	L1616		;; 1bbc: 3a 16 16    :..
 05BF B7        	ora	a		;; 1bbf: b7          .
 05C0 C2C905    	jnz	L1bc9		;; 1bc0: c2 c9 1b    ...
 05C3 CDED04    	call	L1aed		;; 1bc3: cd ed 1a    ...
 05C6 CACF05    	jz	L1bcf		;; 1bc6: ca cf 1b    ...
 05C9 CD1602    L1bc9:	call	L1816		;; 1bc9: cd 16 18    ...
 05CC C32005    	jmp	L1b20		;; 1bcc: c3 20 1b    . .
                
 05CF 3E05      L1bcf:	mvi	a,005h		;; 1bcf: 3e 05       >.
 05D1 320000    	sta	L3005		;; 1bd1: 32 05 30    2.0
 05D4 C9        	ret			;; 1bd4: c9          .
                
 05D5 F5        L1bd5:	push	psw		;; 1bd5: f5          .
 05D6 3E56      	mvi	a,'V'		;; 1bd6: 3e 56       >V
 05D8 C3ED05    	jmp	L1bed		;; 1bd8: c3 ed 1b    ...
                
 05DB F5        L1bdb:	push	psw		;; 1bdb: f5          .
 05DC 3E4F      	mvi	a,'O'		;; 1bdc: 3e 4f       >O
 05DE C3ED05    	jmp	L1bed		;; 1bde: c3 ed 1b    ...
                
 05E1 F5        L1be1:	push	psw		;; 1be1: f5          .
 05E2 3E49      	mvi	a,'I'		;; 1be2: 3e 49       >I
 05E4 C3ED05    	jmp	L1bed		;; 1be4: c3 ed 1b    ...
                
 05E7 F5        L1be7:	push	psw		;; 1be7: f5          .
 05E8 3E42      	mvi	a,'B'		;; 1be8: 3e 42       >B
 05EA C3ED05    	jmp	L1bed		;; 1bea: c3 ed 1b    ...
                
 05ED C5        L1bed:	push	b		;; 1bed: c5          .
 05EE E5        	push	h		;; 1bee: e5          .
 05EF CD0000    	call	setere		;; 1bef: cd 98 25    ..%
 05F2 E1        	pop	h		;; 1bf2: e1          .
 05F3 C1        	pop	b		;; 1bf3: c1          .
 05F4 F1        	pop	psw		;; 1bf4: f1          .
 05F5 C9        	ret			;; 1bf5: c9          .
                
 05F6 F1        	pop	psw		;; 1bf6: f1          .
 05F7 C9        	ret			;; 1bf7: c9          .
                
 05F8 0000000000	db	0,0,0,0,0,0,0,0
 0600           	end
