		;
		; Code to load into the H89 with the bootstrp
		; program. This provides the functions needed to
		; save and restore disk images through the
		; serial port.
		;  On booting the H89, first use the B to load the jump tables
		; into RAM, without any disk. Use Shift/Reset to get back
		; to the H: prompt. Use the S command to enter the boot strap
		; program. Use H89IMG.COM to load this program.
		;  The command interpreter recognizes the
		; following commands:
		; W - Write image to disk. When each buffer is loaded
		;      it replies with W. Each buffer must start with 'W'
		;      or it will abort to command. Buffer size must match.
		;      It expects the V value to match the disk in the drive.
		;      Buffer data is transfered as 8 bit value.
		; R - Reads a disk image, using  V value. Each buffer will
		;     begin transfer when a 'R' is received. Buffer size
		;     is the same as used for W command. A character, other
		;     than r will abort command. Buffer data is transfered
		;     as 8 bit values. Response handshake is 'r' if error.
		; S - Save this image loader to disk as a stand alone boot
		;      ( not HDOS ). The disk must be originally formatted
		;      with V = 0. It returns a S when complete.
		; V - Sets the volume number for the various operations.
		;      Check HDOS docs for useage of the Volume number.
		;      It must receive the volume number as a non-ascii
		;      byte as the next byte after the the V command. It
		;      returns a V when complete.
		; C - Read the disk and returns the volume number if it is
		;      an HDOS disk. If it is another type it would be an
		;      indeterminate value.
		; I - Fallowed by a number 0,1,2 corresponding to a sector
		;      interleaving of 1:1, 1:2, or 1:3. Other numbers will
		;      cause incorrect formatting during writes. This has
		;      effect on the W and S commands only.
		; T - Reads the value of the volume from the header of the
		;      disk in the drive. It does this by looking at track
		;      1's header and not by the HDOS image value.
		; Other characters - It will reply with ? this is handy
		;      to determine if it is truly in the command mode.
		
0A00          	ZBUF	EQU	0A00H	; Buffer size 1 track
0100          	ZSTK	EQU	100H	; STACK SIZE
		
2313          	COMTYP	EQU	2313H	; IF FAH THEN H8-5 ELSE H8-4/H89
					; IN BOOT STRAP
		
		
		; Ports for H8-4
00E0          	LP4	EQU	0E0H
00E0          	TX4	EQU	LP4
00E0          	RX4	EQU	LP4
00E0          	DVL4	EQU	LP4
00E1          	DVH4	EQU	LP4+1
00E1          	IER4	EQU	LP4+1
00E3          	LCNTL4	EQU	LP4+3
00E4          	MCNTL4	EQU	LP4+4
00E5          	LSTAT4	EQU	LP4+5
		
		; Ports for H8-5
00FA          	LP5	EQU	0FAH
00FA          	TX5	EQU	LP5
00FA          	RX5	EQU	LP5
00FB          	CNTL5	EQU	LP5+1
00FB          	STAT5	EQU	LP5+1
		
		; Disk addresses
2061          	DABORT	EQU	2061H
2085          	DSDP	EQU	2085H
2076          	DSDT	EQU	2076H
2088          	DSTS	EQU	2088H
1C19          	CLOCK	EQU	1C19H
1EED          	WSP1	EQU	1EEDH
2097          	DWNB	EQU	2097H
205E          	DXOK	EQU	205EH
206D          	DWRITE	EQU	206DH
2067          	DREAD	EQU	2067H
201F          	UIVEC	EQU	201FH
2008          	MFLAG	EQU	2008H
20A0          	DTT	EQU	20A0H
20A4          	DDLYHS	EQU	20A4H
20A2          	DDVCTL	EQU	20A2H
20A3          	DDLYMO	EQU	20A3H
20A9          	DDRVTB	EQU	20A9H
20A7          	DVOLPT	EQU	20A7H
2053          	DWHDA	EQU	2053H
2073          	DDTS	EQU	2073H
208E          	DUDLY	EQU	208EH
2091          	DWSC	EQU	2091H
2082          	DRDB	EQU	2082H
		
		
2329          		ORG 2329H	; MATCHES WITH BOOTLDR
2329  00      		NOP
232A  00      		NOP
232B  00      		NOP
232C  00      		NOP
232D  F3      		DI
232E  316231  		LXI	SP, SPINT
2331  215A23  		LXI	H, MAINPAD-1
2334  010504  		LXI	B, BUFFER-MAININT+104H
2337  00      		NOP
2338          	ALGNR1:
2338  00      		NOP
2339  00      		NOP
233A  00      		NOP
233B  23      		INX	H
233C  7E      		MOV	A, M
233D  B7      		ORA	A
233E  CA3823  		JZ	ALGNR1		; FIND FIRST CODE
2341  110103  		LXI	D, BUFFER-MAININT	; COUNT TO MOVE
2344  19      		DAD	D		; H POINTS TO END OF SHIFTED CODE
2345  116226  		LXI	D, BUFFER	; END OF CODE
2348  00      		NOP
2349          	ALGNR2:
2349  00      		NOP
234A  00      		NOP
234B  00      		NOP
234C  7E      		MOV	A, M
234D  12      		STAX	D	; MOVE IT UP
234E  1B      		DCX	D
234F  2B      		DCX	H
2350  0D      		DCR	C
2351  C24923  		JNZ	ALGNR2	; 256 BYTES?
2354  05      		DCR	B	; CAUTION DOESN'T WORK RIGHT FOR
					;  SIZES OF EVEN 100H
2355  C24923  		JNZ	ALGNR2	; ALL DONE?
2358  C36123  		JMP	MAININT
235B          	MAINPAD:
235B  00      		NOP
235C  00      		NOP
235D  00      		NOP
235E  00      		NOP
235F  00      		NOP
2360  00      		NOP
2361          	MAININT:
2361  F3      		DI
2362  3EC3    		MVI	A, 0C3H	; JMP
2364  321F20  		STA	UIVEC
2367  21191C  		LXI	H, CLOCK
236A  222020  		SHLD	UIVEC+1
236D  316231  		LXI	SP, SPINT
2370  CD8523  		CALL	SINT
2373  210820  		LXI	H,MFLAG	; TURN ON COUNTER
2376  7E      		MOV	A,M
2377  F601    		ORI	01H
2379  77      		MOV	M,A
237A  FB      		EI
237B  CD6120  		CALL	DABORT	; TRACK 0
		;	DI
237E  00      		NOP
237F          	MAIN1:
237F  CDBC23  		CALL	CMND
2382  C37F23  		JMP	MAIN1
		
2385          	SINT:
2385  3A1323  		LDA	COMTYP
2388  FEFA    		CPI	0FAH	; if H8-5 else H8-4 or H89
238A  CAA723  		JZ	SINT5
		
		
238D          	SINT4:	; For H8-4 and H89 with LP
238D  AF      		XRA	A
238E  D3E3    		OUT	LCNTL4	; LINE CONTROL
2390  D3E1    		OUT	IER4	; NO INTERRUPTS
2392  D3E4    		OUT	MCNTL4	; INIT MODEM CONTROL
2394  3D      		DCR	A	; SHOULD BE 'MVI A, 80H' BUT 0FFH OK
2395  D3E3    		OUT	LCNTL4
2397  3E0C    		MVI	A, 0CH	; 9600 BAUD
2399  D3E0    		OUT	DVL4
239B  AF      		XRA	A
239C  D3E1    		OUT	DVH4
239E  3E07    		MVI	A, 07H	; 8 BIT 2 STOPS
23A0  D3E3    		OUT	LCNTL4
23A2  DBE5    		IN	LSTAT4
23A4  DBE0    		IN	RX4	; CLEAR ANY JUNK
23A6  C9      		RET
		
23A7          	SINT5:	; For H8-5 serial
23A7  3EAA    		MVI	A, 0AAH
23A9  D3FB    		OUT	CNTL5
23AB  3E40    		MVI	A, 040H
23AD  D3FB    		OUT	CNTL5	; RESET 8251
23AF  3ECE    		MVI	A, 0CEH	; ASYNC 2 STOP 8 BIT NO PARITY 16X
23B1  D3FB    		OUT	CNTL5
23B3  3E15    		MVI	A, 015H	; DON'T WANT INTRPTS
23B5  D3FB    		OUT	CNTL5	; ENABLE TX/RX
23B7  DBFB    		IN	STAT5
23B9  DBFA    		IN	RX5	; CLEAR ANY JUNK
23BB  C9      		RET
		
23BC          	CMND:
23BC  CDEC23  		CALL	CHRIN
23BF  FE00    		CPI	0
23C1  CABC23  		JZ	CMND
23C4  FE52    		CPI	'R'
23C6  CA2525  		JZ	RDIMG
23C9  FE57    		CPI	'W'
23CB  CAB624  		JZ	WRIMG
23CE  FE53    		CPI	'S'
23D0  CAB325  		JZ	SVLDR
23D3  FE56    		CPI	'V'
23D5  CA1626  		JZ	SETV
23D8  FE43    		CPI	'C'
23DA  CA8D25  		JZ	CHKV
23DD  FE49    		CPI	'I'
23DF  CA2126  		JZ	INTRLV
23E2  FE54    		CPI	'T'
23E4  CAE325  		JZ	RDDV
23E7  3E3F    		MVI	A, '?'
23E9  C3FD23  		JMP	CHROUT
		
23EC          	CHRIN:
23EC  3A1323  		LDA	COMTYP
23EF  FEFA    		CPI	0FAH	; if H8-5 else H8-4 or H89
23F1  CA1324  		JZ	CHRIN5
		
23F4          	CHRIN4:
23F4  DBE5    		IN	LSTAT4
23F6  1F      		RAR
23F7  D2F423  		JNC	CHRIN4	; WAIT FOR CHAR
23FA  DBE0    		IN	RX4
23FC  C9      		RET
		
23FD          	CHROUT:
23FD  57      		MOV	D, A
23FE  3A1323  		LDA	COMTYP
2401  FEFA    		CPI	0FAH	; if H8-5 else H8-4 or H89
2403  CA1D24  		JZ	CHRO5
2406          	CHRO4:
2406  DBE5    		IN	LSTAT4
2408  E660    		ANI	60H
240A  FE60    		CPI	60H
240C  C20624  		JNZ	CHRO4
240F  7A      		MOV	A, D
2410  D3E0    		OUT	TX4
2412  C9      		RET
		
2413          	CHRIN5:
2413  DBFB    		IN	STAT5
2415  1F      		RAR
2416  1F      		RAR
2417  D21324  		JNC	CHRIN5	; WAIT FOR CHAR
241A  DBFA    		IN	RX5
241C  C9      		RET
		
241D          	CHRO5:
241D  DBFB    		IN	STAT5
241F  1F      		RAR
2420  D21D24  		JNC	CHRO5
2423  7A      		MOV	A, D
2424  D3FA    		OUT	TX5
2426  C9      		RET
		
			; FORMAT A SINGLE TRACK
			; B = track C = vol#
2427          	FTRK:
2427  F3      		DI
2428  210820  		LXI	H,MFLAG	; TURN ON COUNTER
242B  7E      		MOV	A,M
242C  F601    		ORI	01H
242E  77      		MOV	M,A
242F  78      		MOV	A, B
2430  32A020  		STA	DTT
2433  3E02    		MVI	A, 02
2435  32A420  		STA	DDLYHS
2438  AF      		XRA	A
2439  D37F    		OUT	7FH
243B  32A220  		STA	DDVCTL
243E  32A320  		STA	DDLYMO
2441  21AA20  		LXI	H, DDRVTB+1
2444  22A720  		SHLD	DVOLPT
2447  71      		MOV	M, C
2448  FB      		EI
2449  CD8520  		CALL	DSDP	; SDP
244C  CD7620  		CALL	DSDT	; DIS INTRS
244F  AF      		XRA	A
2450  D37E    		OUT	7EH
2452  3C      		INR	A
2453  325320  		STA	DWHDA
2456  3AA220  		LDA	DDVCTL
2459  3C      		INR	A
245A  D37F    		OUT	7FH
245C          	TRK1:
245C  CD8820  		CALL	DSTS	; SKIP THIS SECTOR
245F  3AA420  		LDA	DDLYHS
2462  A7      		ANA	A
2463  C25C24  		JNZ	TRK1	; WAIT DELAY
2466  2AA720  		LHLD	DVOLPT
2469  46      		MOV	B, M	; VOL#
246A  2A5826  		LHLD	SECPNTR	; SEC INTERLEAVE TABLE
246D          	TRK2:
246D  0E0A    		MVI	C, 0AH
246F  CDED1E  		CALL	WSP1	; WRITES 0'S
2472  78      		MOV	A, B	; VOL#
2473  CD9720  		CALL	DWNB
2476  3AA020  		LDA	DTT	; TRACK
2479  CD9720  		CALL	DWNB
247C  7E      		MOV	A, M	; SEC#
247D  CD9720  		CALL	DWNB
2480  23      		INX	H	; INCR SEC PNTR
2481  7A      		MOV	A, D	; ?chksum?
2482  CD9720  		CALL	DWNB
2485  0E10    		MVI	C, 10H
2487  CDED1E  		CALL	WSP1
248A          	TRK3:
248A  CD9720  		CALL	DWNB
248D  0D      		DCR	C	; 256 0'S
248E  C28A24  		JNZ	TRK3
2491          	TRK4:
2491  AF      		XRA	A
2492  CD9720  		CALL	DWNB	; END PAD
2495  DB7F    		IN	7FH
2497  1F      		RAR
2498  D29124  		JNC	TRK4	; UNTIL SEC END
249B  7E      		MOV	A, M
249C  B7      		ORA	A	; 0 MARKS END OF SECTABLE
249D  C26D24  		JNZ	TRK2	; UNTIL END OF TRACK
24A0  3AA220  		LDA	DDVCTL
24A3  D37F    		OUT	7FH
24A5  FB      		EI
24A6  CD5E20  		CALL	DXOK
24A9  3E14    		MVI	A, 14H
24AB  325320  		STA	DWHDA
24AE  210820  		LXI	H,MFLAG	; TURN OFF COUNTER ?
24B1  7E      		MOV	A,M
24B2  E6FE    		ANI	0FEH
24B4  77      		MOV	M,A
24B5  C9      		RET
		
24B6          	WRIMG:
24B6  AF      		XRA	A
24B7  325C26  		STA	SECNUM
24BA  325B26  		STA	CURTRK
24BD  325D26  		STA	SECNUM+1
24C0          	WRIMG1:
24C0  21AA20  		LXI	H, DDRVTB+1
24C3  77      		MOV	M, A
24C4  22A720  		SHLD	DVOLPT
24C7  CDEC23  		CALL	CHRIN
24CA  FE57    		CPI	'W'	; HANDSHAKE
24CC  C0      		RNZ
24CD  216226  		LXI	H, BUFFER
24D0  01000A  		LXI	B, ZBUF
24D3          	WRIMG2:
24D3  CDEC23  		CALL	CHRIN	; GET DATA
24D6  77      		MOV	M, A
24D7  23      		INX	H
24D8  0B      		DCX	B
24D9  78      		MOV	A, B
24DA  B1      		ORA	C
24DB  C2D324  		JNZ	WRIMG2
		;
24DE  3A5B26  		LDA	CURTRK
24E1  47      		MOV	B, A
24E2  B7      		ORA	A
24E3  CAEA24  		JZ	WRIMG3	; C IS ZERO FROM ABOVE
24E6  3A5A26  		LDA	VOLNUM	;  ON FIRST TRACK
24E9  4F      		MOV	C, A	;  USE VOL# ON THE REST
24EA          	WRIMG3:
24EA  CD2724  		CALL	FTRK
24ED  3A5B26  		LDA	CURTRK
24F0  3C      		INR	A
24F1  325B26  		STA	CURTRK
		;
24F4  01000A  		LXI	B, ZBUF
24F7  116226  		LXI	D, BUFFER
24FA  2A5C26  		LHLD	SECNUM
24FD  CD1C25  		CALL	WRBUF
		;
2500  3E57    		MVI	A, 'W'
2502  CDFD23  		CALL	CHROUT
2505  2A5C26  		LHLD	SECNUM
2508  110A00  		LXI	D, 0AH	; SEC/TRK
250B  19      		DAD	D
250C  225C26  		SHLD	SECNUM
250F  1170FE  		LXI	D, -190H	; 400D IS MAX
2512  19      		DAD	D
2513  7C      		MOV	A, H
2514  B5      		ORA	L
2515  3A5A26  		LDA	VOLNUM
2518  C2C024  		JNZ	WRIMG1	; LAST TRACK?
251B  C9      		RET
		
251C          	WRBUF:
			; BC = BUFFER SIZE
			; DE = BUFFER ADDR
			; HL = FIRST SEC#
251C  3E02    		MVI	A, 02
251E  32A420  		STA	DDLYHS
2521  CD6D20  		CALL	DWRITE
2524  C9      		RET
		
2525          	RDIMG:
2525  AF      		XRA	A
2526  325C26  		STA	SECNUM
2529  325D26  		STA	SECNUM+1
252C          	RDIMG1:
252C  21AA20  		LXI	H, DDRVTB+1
252F  77      		MOV	M, A
2530  22A720  		SHLD	DVOLPT
2533  CDEC23  		CALL	CHRIN
2536  FE52    		CPI	'R'
2538  C0      		RNZ
		;
2539  01000A  		LXI	B, ZBUF
253C  116226  		LXI	D, BUFFER
253F  2A5C26  		LHLD	SECNUM
2542  CD7B25  		CALL	RDBUF
		;
2545  216226  		LXI	H, BUFFER
2548  01000A  		LXI	B, ZBUF
254B          	RDIMG2:
254B  7E      		MOV	A, M
254C  CDFD23  		CALL	CHROUT
254F  23      		INX	H
2550  0B      		DCX	B
2551  78      		MOV	A, B
2552  B1      		ORA	C
2553  C24B25  		JNZ	RDIMG2
		;
2556  3A5726  		LDA	GOODRD	; LOOK FOR READ ERROR
2559  B7      		ORA	A
255A  3E52    		MVI	A, 'R'
255C  C26125  		JNZ	RDIMG3
255F  F620    		ORI	020H	; BAD READ SEND r
2561          	RDIMG3:
2561  CDFD23  		CALL	CHROUT
2564  2A5C26  		LHLD	SECNUM
2567  110A00  		LXI	D, 0AH	; SEC/TRK
256A  19      		DAD	D
256B  225C26  		SHLD	SECNUM
256E  1170FE  		LXI	D, -190H	; 400D IS MAX
2571  19      		DAD	D
2572  7C      		MOV	A, H
2573  B5      		ORA	L
2574  3A5A26  		LDA	VOLNUM
2577  C22C25  		JNZ	RDIMG1
257A  C9      		RET
		
257B          	RDBUF:
			; BC = BUFFER SIZE
			; DE = BUFFER ADDR
			; HL = FIRST SEC#
257B  3E02    		MVI	A, 02
257D  32A420  		STA	DDLYHS
2580  CD6720  		CALL	DREAD
2583  3E00    		MVI	A, 0
2585  DA8925  		JC	RDBF1	; IF CARRY, READ ERROR
2588  3D      		DCR	A
2589  325726  	RDBF1:	STA	GOODRD
258C  C9      		RET
		
258D          	CHKV:
258D  AF      		XRA	A
258E  325C26  		STA	SECNUM
2591  325D26  		STA	SECNUM+1
2594          	CHKV1:
2594  21AA20  		LXI	H, DDRVTB+1
2597  77      		MOV	M, A
2598  22A720  		SHLD	DVOLPT
		;
259B  01000A  		LXI	B, ZBUF
259E  116226  		LXI	D, BUFFER
25A1  2A5C26  		LHLD	SECNUM
25A4  CD7B25  		CALL	RDBUF
		;
25A7  3A622F  		LDA	BUFFER+900H
25AA  CDFD23  		CALL	CHROUT
25AD  3E43    		MVI	A, 'C'
25AF  CDFD23  		CALL	CHROUT
25B2  C9      		RET
		
25B3          	SVLDR:
25B3  AF      		XRA	A
25B4  325A26  		STA	VOLNUM
25B7  218022  		LXI	H, 2280H
25BA  111326  		LXI	D, DSKBOOT
25BD  0E4F    		MVI	C, DBEND-DSKBOOT
25BF          	SVLDR1:
25BF  1A      		LDAX	D
25C0  13      		INX	D
25C1  77      		MOV	M, A
25C2  23      		INX	H
25C3  0D      		DCR	C
25C4  C2BF25  		JNZ	SVLDR1
		;
25C7  AF      		XRA	A
25C8  47      		MOV	B, A
25C9  4F      		MOV	C, A
25CA  CD2724  		CALL	FTRK
		;
25CD  AF      		XRA	A
25CE  2AA720  		LHLD	DVOLPT
25D1  77      		MOV	M, A
25D2  01DC03  		LXI	B, SECNUM-2280H
25D5  118022  		LXI	D, 2280H
25D8  210000  		LXI	H, 0
25DB  CD1C25  		CALL	WRBUF
25DE  3E53    		MVI	A, 'S'
25E0  C3FD23  		JMP	CHROUT
		
25E3          	RDDV:	; READ DISK VOLUME
25E3  212000  		LXI	H, 20H	; SOMEPLACE OFF TRACK 0
25E6  E5      		PUSH	H
25E7  CD8520  		CALL	DSDP
25EA  E1      		POP	H
25EB  CD7320  		CALL	DDTS
25EE  3E01    		MVI	A,1
25F0  CD8E20  		CALL	DUDLY
25F3  CD8820  	RDDV1:	CALL	DSTS	; SKIP SECTOR
25F6  3AA420  		LDA	DDLYHS
25F9  A7      		ANA	A
25FA  C2F325  		JNZ	RDDV1
25FD  F3      		DI
25FE  CD9120  		CALL	DWSC
2601  CD8220  		CALL	DRDB
2604  FB      		EI
2605  F5      		PUSH	PSW
2606  CD6120  		CALL	DABORT	; TRACK 0
2609  F1      		POP	PSW
260A  CDFD23  		CALL	CHROUT
260D  3E54    		MVI	A, 'T'
260F  CDFD23  		CALL	CHROUT
2612  C9      		RET
		
		
2613          	DSKBOOT:
2613  C36123  		JMP	MAININT
		
2616          	SETV:
2616  CDEC23  		CALL	CHRIN
2619  325A26  		STA	VOLNUM
261C  3E56    		MVI	A, 'V'
261E  C3FD23  		JMP	CHROUT
		
2621          	INTRLV:
2621  CDEC23  		CALL	CHRIN
2624  87      		ADD	A
2625  47      		MOV	B, A
2626  87      		ADD	A
2627  87      		ADD	A
2628  80      		ADD	B	; TIMES 10
2629  4F      		MOV	C, A
262A  0600    		MVI	B, 0
262C  213826  		LXI	H, SEC1
262F  09      		DAD	B
2630  225826  		SHLD	SECPNTR
2633  3E49    		MVI	A, 'I'
2635  C3FD23  		JMP	CHROUT
		
2638  00010203	SEC1:	DB	0,1,2,3,4,5,6,7,8,9
      04050607
      0809
2642  00020406	SEC2:	DB	0,2,4,6,8,1,3,5,7,9
      08010305
      0709
264C  00030609	SEC3:	DB	0,3,6,9,2,5,8,1,4,7
      02050801
      0407
2656  00      	SECEND:	DB	0
		
2657  00      	GOODRD:	DB	0
2658  3826    	SECPNTR: DW	SEC1
265A  00      	VOLNUM:	DB	0
265B  00      	CURTRK:	DB	0
265C  0000    	SECNUM:	DW	0	; 400D MAX 190H
265E  FF00FF00	DUMMY:	DB	0FFH, 0, 0FFH, 0	; INSURE ASYNC ALIGNMENT
		
2662          	DBEND:
2662          	BUFFER:
2662          		DS	ZBUF
		
3062          		DS	ZSTK
3162          	SPINT:
		
3162          		END



Statistics:

     4	passes
     0	jr promotions
    93	symbols
   825	bytes
