                ; DELAY FOR NUMBER OF SECONDS
                ;
                	MACLIB Z80
                
 0000 =         CPM	EQU	0
 0005 =         BDOS	EQU	5
                
 0100           	ORG	100H
                
 0100 C30901    	JMP	START
                
 0103 3A00      GETSCB:	DB	3AH,0
 0105 0000      SECP:	DW	0
 0107 0000      SECS:	DW	0
                
 0109 31AD02    START:	LXI	SP,STACK
                
 010C 0E0C              MVI     C,12
 010E CD0500            CALL    BDOS
 0111 7D        	MOV	A,L
 0112 FE31      	CPI	31H
 0114 C25001    	JNZ	NOCPM3
                
 0117 110301    	LXI	D,GETSCB
 011A 0E31      	MVI	C,49
 011C CD0500    	CALL	BDOS
 011F 115C00    	LXI	D,005CH
 0122 19        	DAD	D
 0123 220501    	SHLD	SECP
                
 0126 218000    	LXI	H,0080H
 0129 46        	MOV	B,M
 012A 23        	INX	H
 012B CD8C01    	CALL	SKIPB
 012E DA0000    	JC	CPM	; IGNORE NO PARAM
 0131 CD5B01    	CALL	PARSNM
 0134 DA0000    	JC	CPM	; IGNORE ERRORS
 0137 EB        	XCHG
 0138 220701    	SHLD	SECS
                	;...
 013B 2A0701    	LHLD	SECS
 013E EB        	XCHG
 013F 2A0501    	LHLD	SECP
 0142 7E        LOOP:	MOV	A,M
 0143 BE        LOOP1:	CMP	M
 0144 CA4301    	JZ	LOOP1
 0147 1B        	DCX	D
 0148 7B        	MOV	A,E
 0149 B2        	ORA	D
 014A C24201    	JNZ	LOOP
                
 014D C30000    	JMP	CPM
                
 0150 119B01    NOCPM3:	LXI	D,XCPM3
 0153 0E09      	MVI	C,9
 0155 CD0500    	CALL	BDOS
 0158 C30000    	JMP	CPM
                
                ; PARSE A 16-BIT (MAX) DECIMAL NUMBER
                PARSNM:
 015B 110000    	LXI	D,0
 015E 7E        PD0:	MOV	A,M
 015F FE20      	CPI	' '
 0161 C8        	RZ
 0162 FE30      	CPI	'0'
 0164 D8        	RC
 0165 FE3A      	CPI	'9'+1
 0167 3F        	CMC
 0168 D8        	RC
 0169 E60F      	ANI	0FH
 016B E5        	PUSH	H
 016C 62        	MOV	H,D
 016D 6B        	MOV	L,E
 016E 29        	DAD	H	; *2
 016F DA8A01    	JC	PD1
 0172 29        	DAD	H	; *4
 0173 DA8A01    	JC	PD1
 0176 19        	DAD	D	; *5
 0177 DA8A01    	JC	PD1
 017A 29        	DAD	H	; *10
 017B DA8A01    	JC	PD1
 017E 5F        	MOV	E,A
 017F 1600      	MVI	D,0
 0181 19        	DAD	D
 0182 EB        	XCHG
 0183 E1        	POP	H
 0184 D8        	RC
 0185 23        	INX	H
                	DJNZ	PD0
 0186+10D6      	DB	10H,PD0-$-1
 0188 B7        	ORA	A	; NC
 0189 C9        	RET
                
 018A E1        PD1:	POP	H
 018B C9        	RET	; CY STILL SET
                
                SKIPB:
 018C 78        	MOV	A,B
 018D B7        	ORA	A
 018E 37        	STC
 018F C8        	RZ
 0190 7E        SKIP0:	MOV	A,M
 0191 FE20      	CPI	' '
 0193 37        	STC
 0194 3F        	CMC
 0195 C0        	RNZ
 0196 23        	INX	H
                	DJNZ	SKIP0
 0197+10F7      	DB	10H,SKIP0-$-1
 0199 37        	STC
 019A C9        	RET
                
 019B 5265717569XCPM3:	DB	'Requires CP/M 3',13,10,'$'
                
 01AD           	DS	256
 02AD           STACK:	DS	0
                
 02AD           	END
