                ; SPDSBC - SET/SHOW CPU SPEED FOR NORBERTO'S H8 CPU CARD
                	MACLIB	Z80
                
 000D =         CR	EQU	13
 000A =         LF	EQU	10
                
 0014 =         SPBITS	EQU	00010100B
 0014 =         MHZ10	EQU	00010100B
 0004 =         MHZ8	EQU	00000100B
 0010 =         MHZ4	EQU	00010000B
 0000 =         MHZ2	EQU	00000000B
                
 00F2 =         GPP	EQU	0F2H
                
 0000 =         CPM	EQU	0000H
 0005 =         BDOS	EQU	0005H
 0080 =         CMD	EQU	0080H
                
 0009 =         PRINT	EQU	9
                
 0064 =         CTLFLG	EQU	100	; OFFSET FROM BIOS FOR CTLFLG
                
 0100           	ORG	100H
                
 0100 2A0100    	LHLD	CPM+1	; BIOS+3
 0103 116100    	LXI	D,CTLFLG-3
 0106 19        	DAD	D
 0107 EB        	XCHG
                
 0108 218000    	LXI	H,CMD
 010B 7E        	MOV	A,M
 010C B7        	ORA	A
 010D CA5501    	JZ	SHOW
 0110 47        	MOV	B,A
                SKIP:
 0111 23        	INX	H
 0112 7E        	MOV	A,M
 0113 FE20      	CPI	' '
 0115 C21D01    	JNZ	START
                	DJNZ	SKIP
 0118+10F7      	DB	10H,SKIP-$-1
 011A C35501    	JMP	SHOW
                START:
 011D FE32      	CPI	'2'
 011F 0E00      	MVI	C,MHZ2
 0121 CA4401    	JZ	GOTIT
 0124 FE34      	CPI	'4'
 0126 0E10      	MVI	C,MHZ4
 0128 CA4401    	JZ	GOTIT
 012B FE38      	CPI	'8'
 012D 0E04      	MVI	C,MHZ8
 012F CA4401    	JZ	GOTIT
 0132 FE31      	CPI	'1'
 0134 0E14      	MVI	C,MHZ10
 0136 C25C01    	JNZ	HELP
 0139 23        	INX	H
 013A 05        	DCR	B
 013B CA5C01    	JZ	HELP
 013E 7E        	MOV	A,M
 013F FE30      	CPI	'0'
 0141 C25C01    	JNZ	HELP
                GOTIT:
 0144 05        	DCR	B
 0145 C25C01    	JNZ	HELP
 0148 F3        	DI
 0149 1A        	LDAX	D
 014A E6EB      	ANI	NOT SPBITS
 014C B1        	ORA	C
 014D 12        	STAX	D
                	;OUT	GPP
 014E FB        	EI
                	; A = CTLFLG VALUE
 014F 11C401    	LXI	D,SPEED
 0152 C36001    	JMP	DONE
                SHOW:
 0155 1A        	LDAX	D
 0156 11C401    	LXI	D,SPEED
 0159 C36001    	JMP	DONE
                HELP:
 015C 1A        	LDAX	D
 015D 115C01    	LXI	D,HELP
                DONE:
 0160 E614      	ANI	SPBITS
 0162 FE14      	CPI	MHZ10
 0164 CA7701    	JZ	DO10
 0167 FE04      	CPI	MHZ8
 0169 CA7D01    	JZ	DO8
 016C FE10      	CPI	MHZ4
 016E CA8301    	JZ	DO4
                ; MUST BE 2MHZ...
 0171 012032    	LXI	B,' 2'
 0174 C38601    	JMP	PRTSPD
 0177 013130    DO10:	LXI	B,'10'
 017A C38601    	JMP	PRTSPD
 017D 012038    DO8:	LXI	B,' 8'
 0180 C38601    	JMP	PRTSPD
 0183 012034    DO4:	LXI	B,' 4'
                	;JMP	PRTSPD
 0186 78        PRTSPD:	MOV	A,B
 0187 32D701    	STA	SPDNUM
 018A 79        	MOV	A,C
 018B 32D801    	STA	SPDNUM+1
 018E 0E09      	MVI	C,PRINT
 0190 CD0500    	CALL	BDOS
 0193 C30000    	JMP	CPM
                
 0196 5573616765USAGE:	DB	'Usage: SPD {s} where s is 2, 4, 8 or 10 MHz.',CR,LF
 01C4 596F752061SPEED:	DB	'You are running at '
 01D7 7878204D48SPDNUM:	DB	'xx MHz.',CR,LF,'$'
                
 01E1           	END
