		;;;;;;;;;;;;;;;;;;;;;;;;;;;;;;;;;;;;;;;;;;;;;;;;;;;;;;;;;;
		; Memory Test command
		
		; TODO! this needs lots of work... Maybe only tests 2000H-FFFFH.
		
			maclib	core
**** core.lib ****
**** cmemtst.asm ****
			maclib	core80
**** core80.lib ****
**** cmemtst.asm ****
			maclib	ram
**** ram.lib ****
**** cmemtst.asm ****
		
000D          	CR	equ	13
000A          	LF	equ	10
0007          	BEL	equ	7
		
		; ctl$F2 bits
0014          	ctl$SPD		equ	00010100b
0020          	ctl$ORG0	equ	00100000b
		
1000          		org	1000h
1000  02      	first:	db	HIGH (last-first)
1001  10      		db	HIGH first
1002  FF00    		db	255,0
		
1004  C31910  		jmp	init
1007  C33810  		jmp	cmdmt
		
100A  4D      		db	'M'
100B  FF      		db	-1
100C  00      		db	0
100D  FFFFFF  		db	11111111b,11111111b,11111111b
1010  4D656D20		db	'Mem test',0
      74657374
      00
		
1019  AF      	init:	xra	a
101A  C9      		ret
		
101B  656D2074	mtms:	db	'em test',0
      65737400
1023  54657374	topms:	db	'Testing 2000-FFFF',CR,LF,0
      696E6720
      32303030
      2D464646
      460D0A00
		
1037  00      	seed:	db	0
		
1038          	cmdmt:
1038  211B10  		lxi	h,mtms
103B  CD4400  		call	msgout
103E  CDBD10  		call	waitcr
1041  212310  		lxi	h,topms
1044  CD4400  		call	msgout
1047  F3      		di
1048  310811  		lxi	sp,stack
104B  3A3620  		lda	ctl$F2
104E  E614    		ani	ctl$SPD	; all but speed bits OFF
1050  F620    		ori	ctl$ORG0	; set/keep ORG0 only
1052  D3F2    		out	0f2h
1054          	mtest0:
1054  3A3710  		lda	seed
1057  CD3101  		call	hexout
105A  3E0D    		mvi	a,CR
105C  CDB910  		call	chrout
105F          	mtest1:
105F  3A3710  		lda	seed
1062  210020  		lxi	h,2000h
1065          	mtest4:
1065  77      		mov	m,a
1066  C601    		adi	1
1068  27      		daa
1069  2C      		inr	l
106A  C26510  		jnz	mtest4
106D  24      		inr	h
106E  C26510  		jnz	mtest4
1071  3A3710  		lda	seed
1074  210020  		lxi	h,2000h
1077          	mtest5:
1077  BE      		cmp	m
1078  C29210  		jnz	mtest9
107B  C601    		adi	1
107D  27      		daa
107E  2C      		inr	l
107F  C27710  		jnz	mtest5
1082  24      		inr	h
1083  C27710  		jnz	mtest5
		
1086  3A3710  		lda	seed
1089  C601    		adi	1
108B  27      		daa
108C  323710  		sta	seed
108F  C35410  		jmp	mtest0
		
1092          	mtest9:	; HL=error addr
			; print "AAAA DD *" and beep forever
1092  CD2E01  		call	adrnl
1095  CD3401  		call	spout
1098  3A3710  		lda	seed
109B  CD3101  		call	hexout
109E  CD3401  		call	spout
10A1  3E2A    		mvi	a,'*'
10A3  CDB910  		call	chrout
10A6          	mtestG:
10A6  3E07    		mvi	a,BEL
10A8  CDB910  		call	chrout
10AB  AF      		xra	a
10AC  06FA    		mvi	b,0fah
10AE          	mtestH:
10AE  3D      		dcr	a
10AF  C2AE10  		jnz	mtestH
10B2  05      		dcr b !
10B3  C2AE10  	 jnz mtestH
10B6  C3A610  		jmp	mtestG
		
10B9  2A2600  	chrout:	lhld	conout
10BC  E9      		pchl
		
10BD          	waitcr:
10BD  CD4A00  		call	conin
10C0  FE0D    		cpi	CR
10C2  C2BD10  		jnz	waitcr
10C5  C31B00  		jmp	crlf
		
10C8          		ds	64
		stack:	ds	0
		
1108  FFFFFFFF		rept	(($+0ffh) and 0ff00h)-$
      FFFFFFFF
      FFFFFFFF
      FFFFFFFF
      FFFFFFFF
      FFFFFFFF
      FFFFFFFF
      FFFFFFFF
      FFFFFFFF
      FFFFFFFF
      FFFFFFFF
      FFFFFFFF
      FFFFFFFF
      FFFFFFFF
      FFFFFFFF
      FFFFFFFF
      FFFFFFFF
      FFFFFFFF
      FFFFFFFF
      FFFFFFFF
      FFFFFFFF
      FFFFFFFF
      FFFFFFFF
      FFFFFFFF
      FFFFFFFF
      FFFFFFFF
      FFFFFFFF
      FFFFFFFF
      FFFFFFFF
      FFFFFFFF
      FFFFFFFF
      FFFFFFFF
      FFFFFFFF
      FFFFFFFF
      FFFFFFFF
      FFFFFFFF
      FFFFFFFF
      FFFFFFFF
      FFFFFFFF
      FFFFFFFF
      FFFFFFFF
      FFFFFFFF
      FFFFFFFF
      FFFFFFFF
      FFFFFFFF
      FFFFFFFF
      FFFFFFFF
      FFFFFFFF
      FFFFFFFF
      FFFFFFFF
      FFFFFFFF
      FFFFFFFF
      FFFFFFFF
      FFFFFFFF
      FFFFFFFF
      FFFFFFFF
      FFFFFFFF
      FFFFFFFF
      FFFFFFFF
      FFFFFFFF
      FFFFFFFF
      FFFFFFFF
		
1200          	last:	end



Statistics:

     4	passes
     0	jr promotions
   104	symbols
   448	bytes

   248	macro calls
    16	macro bytes
     0	invented symbols
